
bomb:     file format elf64-x86-64


Disassembly of section .init:

0000000000400b38 <_init>:
  400b38:	48 83 ec 08          	sub    $0x8,%rsp
  400b3c:	48 8b 05 b5 34 20 00 	mov    0x2034b5(%rip),%rax        # 603ff8 <__gmon_start__>
  400b43:	48 85 c0             	test   %rax,%rax
  400b46:	74 05                	je     400b4d <_init+0x15>
  400b48:	e8 f3 01 00 00       	callq  400d40 <__gmon_start__@plt>
  400b4d:	48 83 c4 08          	add    $0x8,%rsp
  400b51:	c3                   	retq   

Disassembly of section .plt:

0000000000400b60 <.plt>:
  400b60:	ff 35 a2 34 20 00    	pushq  0x2034a2(%rip)        # 604008 <_GLOBAL_OFFSET_TABLE_+0x8>
  400b66:	ff 25 a4 34 20 00    	jmpq   *0x2034a4(%rip)        # 604010 <_GLOBAL_OFFSET_TABLE_+0x10>
  400b6c:	0f 1f 40 00          	nopl   0x0(%rax)

0000000000400b70 <getenv@plt>:
  400b70:	ff 25 a2 34 20 00    	jmpq   *0x2034a2(%rip)        # 604018 <getenv@GLIBC_2.2.5>
  400b76:	68 00 00 00 00       	pushq  $0x0
  400b7b:	e9 e0 ff ff ff       	jmpq   400b60 <.plt>

0000000000400b80 <strcasecmp@plt>:
  400b80:	ff 25 9a 34 20 00    	jmpq   *0x20349a(%rip)        # 604020 <strcasecmp@GLIBC_2.2.5>
  400b86:	68 01 00 00 00       	pushq  $0x1
  400b8b:	e9 d0 ff ff ff       	jmpq   400b60 <.plt>

0000000000400b90 <__errno_location@plt>:
  400b90:	ff 25 92 34 20 00    	jmpq   *0x203492(%rip)        # 604028 <__errno_location@GLIBC_2.2.5>
  400b96:	68 02 00 00 00       	pushq  $0x2
  400b9b:	e9 c0 ff ff ff       	jmpq   400b60 <.plt>

0000000000400ba0 <strcpy@plt>:
  400ba0:	ff 25 8a 34 20 00    	jmpq   *0x20348a(%rip)        # 604030 <strcpy@GLIBC_2.2.5>
  400ba6:	68 03 00 00 00       	pushq  $0x3
  400bab:	e9 b0 ff ff ff       	jmpq   400b60 <.plt>

0000000000400bb0 <puts@plt>:
  400bb0:	ff 25 82 34 20 00    	jmpq   *0x203482(%rip)        # 604038 <puts@GLIBC_2.2.5>
  400bb6:	68 04 00 00 00       	pushq  $0x4
  400bbb:	e9 a0 ff ff ff       	jmpq   400b60 <.plt>

0000000000400bc0 <write@plt>:
  400bc0:	ff 25 7a 34 20 00    	jmpq   *0x20347a(%rip)        # 604040 <write@GLIBC_2.2.5>
  400bc6:	68 05 00 00 00       	pushq  $0x5
  400bcb:	e9 90 ff ff ff       	jmpq   400b60 <.plt>

0000000000400bd0 <__stack_chk_fail@plt>:
  400bd0:	ff 25 72 34 20 00    	jmpq   *0x203472(%rip)        # 604048 <__stack_chk_fail@GLIBC_2.4>
  400bd6:	68 06 00 00 00       	pushq  $0x6
  400bdb:	e9 80 ff ff ff       	jmpq   400b60 <.plt>

0000000000400be0 <alarm@plt>:
  400be0:	ff 25 6a 34 20 00    	jmpq   *0x20346a(%rip)        # 604050 <alarm@GLIBC_2.2.5>
  400be6:	68 07 00 00 00       	pushq  $0x7
  400beb:	e9 70 ff ff ff       	jmpq   400b60 <.plt>

0000000000400bf0 <close@plt>:
  400bf0:	ff 25 62 34 20 00    	jmpq   *0x203462(%rip)        # 604058 <close@GLIBC_2.2.5>
  400bf6:	68 08 00 00 00       	pushq  $0x8
  400bfb:	e9 60 ff ff ff       	jmpq   400b60 <.plt>

0000000000400c00 <read@plt>:
  400c00:	ff 25 5a 34 20 00    	jmpq   *0x20345a(%rip)        # 604060 <read@GLIBC_2.2.5>
  400c06:	68 09 00 00 00       	pushq  $0x9
  400c0b:	e9 50 ff ff ff       	jmpq   400b60 <.plt>

0000000000400c10 <__libc_start_main@plt>:
  400c10:	ff 25 52 34 20 00    	jmpq   *0x203452(%rip)        # 604068 <__libc_start_main@GLIBC_2.2.5>
  400c16:	68 0a 00 00 00       	pushq  $0xa
  400c1b:	e9 40 ff ff ff       	jmpq   400b60 <.plt>

0000000000400c20 <fgets@plt>:
  400c20:	ff 25 4a 34 20 00    	jmpq   *0x20344a(%rip)        # 604070 <fgets@GLIBC_2.2.5>
  400c26:	68 0b 00 00 00       	pushq  $0xb
  400c2b:	e9 30 ff ff ff       	jmpq   400b60 <.plt>

0000000000400c30 <signal@plt>:
  400c30:	ff 25 42 34 20 00    	jmpq   *0x203442(%rip)        # 604078 <signal@GLIBC_2.2.5>
  400c36:	68 0c 00 00 00       	pushq  $0xc
  400c3b:	e9 20 ff ff ff       	jmpq   400b60 <.plt>

0000000000400c40 <gethostbyname@plt>:
  400c40:	ff 25 3a 34 20 00    	jmpq   *0x20343a(%rip)        # 604080 <gethostbyname@GLIBC_2.2.5>
  400c46:	68 0d 00 00 00       	pushq  $0xd
  400c4b:	e9 10 ff ff ff       	jmpq   400b60 <.plt>

0000000000400c50 <__memmove_chk@plt>:
  400c50:	ff 25 32 34 20 00    	jmpq   *0x203432(%rip)        # 604088 <__memmove_chk@GLIBC_2.3.4>
  400c56:	68 0e 00 00 00       	pushq  $0xe
  400c5b:	e9 00 ff ff ff       	jmpq   400b60 <.plt>

0000000000400c60 <strtol@plt>:
  400c60:	ff 25 2a 34 20 00    	jmpq   *0x20342a(%rip)        # 604090 <strtol@GLIBC_2.2.5>
  400c66:	68 0f 00 00 00       	pushq  $0xf
  400c6b:	e9 f0 fe ff ff       	jmpq   400b60 <.plt>

0000000000400c70 <malloc@plt>:
  400c70:	ff 25 22 34 20 00    	jmpq   *0x203422(%rip)        # 604098 <malloc@GLIBC_2.2.5>
  400c76:	68 10 00 00 00       	pushq  $0x10
  400c7b:	e9 e0 fe ff ff       	jmpq   400b60 <.plt>

0000000000400c80 <fflush@plt>:
  400c80:	ff 25 1a 34 20 00    	jmpq   *0x20341a(%rip)        # 6040a0 <fflush@GLIBC_2.2.5>
  400c86:	68 11 00 00 00       	pushq  $0x11
  400c8b:	e9 d0 fe ff ff       	jmpq   400b60 <.plt>

0000000000400c90 <__isoc99_sscanf@plt>:
  400c90:	ff 25 12 34 20 00    	jmpq   *0x203412(%rip)        # 6040a8 <__isoc99_sscanf@GLIBC_2.7>
  400c96:	68 12 00 00 00       	pushq  $0x12
  400c9b:	e9 c0 fe ff ff       	jmpq   400b60 <.plt>

0000000000400ca0 <__printf_chk@plt>:
  400ca0:	ff 25 0a 34 20 00    	jmpq   *0x20340a(%rip)        # 6040b0 <__printf_chk@GLIBC_2.3.4>
  400ca6:	68 13 00 00 00       	pushq  $0x13
  400cab:	e9 b0 fe ff ff       	jmpq   400b60 <.plt>

0000000000400cb0 <fopen@plt>:
  400cb0:	ff 25 02 34 20 00    	jmpq   *0x203402(%rip)        # 6040b8 <fopen@GLIBC_2.2.5>
  400cb6:	68 14 00 00 00       	pushq  $0x14
  400cbb:	e9 a0 fe ff ff       	jmpq   400b60 <.plt>

0000000000400cc0 <gethostname@plt>:
  400cc0:	ff 25 fa 33 20 00    	jmpq   *0x2033fa(%rip)        # 6040c0 <gethostname@GLIBC_2.2.5>
  400cc6:	68 15 00 00 00       	pushq  $0x15
  400ccb:	e9 90 fe ff ff       	jmpq   400b60 <.plt>

0000000000400cd0 <exit@plt>:
  400cd0:	ff 25 f2 33 20 00    	jmpq   *0x2033f2(%rip)        # 6040c8 <exit@GLIBC_2.2.5>
  400cd6:	68 16 00 00 00       	pushq  $0x16
  400cdb:	e9 80 fe ff ff       	jmpq   400b60 <.plt>

0000000000400ce0 <connect@plt>:
  400ce0:	ff 25 ea 33 20 00    	jmpq   *0x2033ea(%rip)        # 6040d0 <connect@GLIBC_2.2.5>
  400ce6:	68 17 00 00 00       	pushq  $0x17
  400ceb:	e9 70 fe ff ff       	jmpq   400b60 <.plt>

0000000000400cf0 <__fprintf_chk@plt>:
  400cf0:	ff 25 e2 33 20 00    	jmpq   *0x2033e2(%rip)        # 6040d8 <__fprintf_chk@GLIBC_2.3.4>
  400cf6:	68 18 00 00 00       	pushq  $0x18
  400cfb:	e9 60 fe ff ff       	jmpq   400b60 <.plt>

0000000000400d00 <sleep@plt>:
  400d00:	ff 25 da 33 20 00    	jmpq   *0x2033da(%rip)        # 6040e0 <sleep@GLIBC_2.2.5>
  400d06:	68 19 00 00 00       	pushq  $0x19
  400d0b:	e9 50 fe ff ff       	jmpq   400b60 <.plt>

0000000000400d10 <__ctype_b_loc@plt>:
  400d10:	ff 25 d2 33 20 00    	jmpq   *0x2033d2(%rip)        # 6040e8 <__ctype_b_loc@GLIBC_2.3>
  400d16:	68 1a 00 00 00       	pushq  $0x1a
  400d1b:	e9 40 fe ff ff       	jmpq   400b60 <.plt>

0000000000400d20 <__sprintf_chk@plt>:
  400d20:	ff 25 ca 33 20 00    	jmpq   *0x2033ca(%rip)        # 6040f0 <__sprintf_chk@GLIBC_2.3.4>
  400d26:	68 1b 00 00 00       	pushq  $0x1b
  400d2b:	e9 30 fe ff ff       	jmpq   400b60 <.plt>

0000000000400d30 <socket@plt>:
  400d30:	ff 25 c2 33 20 00    	jmpq   *0x2033c2(%rip)        # 6040f8 <socket@GLIBC_2.2.5>
  400d36:	68 1c 00 00 00       	pushq  $0x1c
  400d3b:	e9 20 fe ff ff       	jmpq   400b60 <.plt>

Disassembly of section .plt.got:

0000000000400d40 <__gmon_start__@plt>:
  400d40:	ff 25 b2 32 20 00    	jmpq   *0x2032b2(%rip)        # 603ff8 <__gmon_start__>
  400d46:	66 90                	xchg   %ax,%ax

Disassembly of section .text:

0000000000400d50 <_start>:
  400d50:	31 ed                	xor    %ebp,%ebp
  400d52:	49 89 d1             	mov    %rdx,%r9
  400d55:	5e                   	pop    %rsi
  400d56:	48 89 e2             	mov    %rsp,%rdx
  400d59:	48 83 e4 f0          	and    $0xfffffffffffffff0,%rsp
  400d5d:	50                   	push   %rax
  400d5e:	54                   	push   %rsp
  400d5f:	49 c7 c0 70 26 40 00 	mov    $0x402670,%r8
  400d66:	48 c7 c1 00 26 40 00 	mov    $0x402600,%rcx
  400d6d:	48 c7 c7 46 0e 40 00 	mov    $0x400e46,%rdi
  400d74:	e8 97 fe ff ff       	callq  400c10 <__libc_start_main@plt>
  400d79:	f4                   	hlt    
  400d7a:	66 0f 1f 44 00 00    	nopw   0x0(%rax,%rax,1)

0000000000400d80 <deregister_tm_clones>:
  400d80:	b8 87 4b 60 00       	mov    $0x604b87,%eax
  400d85:	55                   	push   %rbp
  400d86:	48 2d 80 4b 60 00    	sub    $0x604b80,%rax
  400d8c:	48 83 f8 0e          	cmp    $0xe,%rax
  400d90:	48 89 e5             	mov    %rsp,%rbp
  400d93:	76 1b                	jbe    400db0 <deregister_tm_clones+0x30>
  400d95:	b8 00 00 00 00       	mov    $0x0,%eax
  400d9a:	48 85 c0             	test   %rax,%rax
  400d9d:	74 11                	je     400db0 <deregister_tm_clones+0x30>
  400d9f:	5d                   	pop    %rbp
  400da0:	bf 80 4b 60 00       	mov    $0x604b80,%edi
  400da5:	ff e0                	jmpq   *%rax
  400da7:	66 0f 1f 84 00 00 00 	nopw   0x0(%rax,%rax,1)
  400dae:	00 00 
  400db0:	5d                   	pop    %rbp
  400db1:	c3                   	retq   
  400db2:	0f 1f 40 00          	nopl   0x0(%rax)
  400db6:	66 2e 0f 1f 84 00 00 	nopw   %cs:0x0(%rax,%rax,1)
  400dbd:	00 00 00 

0000000000400dc0 <register_tm_clones>:
  400dc0:	be 80 4b 60 00       	mov    $0x604b80,%esi
  400dc5:	55                   	push   %rbp
  400dc6:	48 81 ee 80 4b 60 00 	sub    $0x604b80,%rsi
  400dcd:	48 c1 fe 03          	sar    $0x3,%rsi
  400dd1:	48 89 e5             	mov    %rsp,%rbp
  400dd4:	48 89 f0             	mov    %rsi,%rax
  400dd7:	48 c1 e8 3f          	shr    $0x3f,%rax
  400ddb:	48 01 c6             	add    %rax,%rsi
  400dde:	48 d1 fe             	sar    %rsi
  400de1:	74 15                	je     400df8 <register_tm_clones+0x38>
  400de3:	b8 00 00 00 00       	mov    $0x0,%eax
  400de8:	48 85 c0             	test   %rax,%rax
  400deb:	74 0b                	je     400df8 <register_tm_clones+0x38>
  400ded:	5d                   	pop    %rbp
  400dee:	bf 80 4b 60 00       	mov    $0x604b80,%edi
  400df3:	ff e0                	jmpq   *%rax
  400df5:	0f 1f 00             	nopl   (%rax)
  400df8:	5d                   	pop    %rbp
  400df9:	c3                   	retq   
  400dfa:	66 0f 1f 44 00 00    	nopw   0x0(%rax,%rax,1)

0000000000400e00 <__do_global_dtors_aux>:
  400e00:	80 3d a1 3d 20 00 00 	cmpb   $0x0,0x203da1(%rip)        # 604ba8 <completed.7593>
  400e07:	75 11                	jne    400e1a <__do_global_dtors_aux+0x1a>
  400e09:	55                   	push   %rbp
  400e0a:	48 89 e5             	mov    %rsp,%rbp
  400e0d:	e8 6e ff ff ff       	callq  400d80 <deregister_tm_clones>
  400e12:	5d                   	pop    %rbp
  400e13:	c6 05 8e 3d 20 00 01 	movb   $0x1,0x203d8e(%rip)        # 604ba8 <completed.7593>
  400e1a:	f3 c3                	repz retq 
  400e1c:	0f 1f 40 00          	nopl   0x0(%rax)

0000000000400e20 <frame_dummy>:
  400e20:	bf 20 3e 60 00       	mov    $0x603e20,%edi
  400e25:	48 83 3f 00          	cmpq   $0x0,(%rdi)
  400e29:	75 05                	jne    400e30 <frame_dummy+0x10>
  400e2b:	eb 93                	jmp    400dc0 <register_tm_clones>
  400e2d:	0f 1f 00             	nopl   (%rax)
  400e30:	b8 00 00 00 00       	mov    $0x0,%eax
  400e35:	48 85 c0             	test   %rax,%rax
  400e38:	74 f1                	je     400e2b <frame_dummy+0xb>
  400e3a:	55                   	push   %rbp
  400e3b:	48 89 e5             	mov    %rsp,%rbp
  400e3e:	ff d0                	callq  *%rax
  400e40:	5d                   	pop    %rbp
  400e41:	e9 7a ff ff ff       	jmpq   400dc0 <register_tm_clones>

0000000000400e46 <main>:
  400e46:	53                   	push   %rbx
  400e47:	83 ff 01             	cmp    $0x1,%edi
  400e4a:	0f 84 3c 01 00 00    	je     400f8c <main+0x146>
  400e50:	48 89 f3             	mov    %rsi,%rbx
  400e53:	83 ff 02             	cmp    $0x2,%edi
  400e56:	0f 85 63 01 00 00    	jne    400fbf <main+0x179>
  400e5c:	48 8b 7e 08          	mov    0x8(%rsi),%rdi
  400e60:	be 84 26 40 00       	mov    $0x402684,%esi
  400e65:	e8 46 fe ff ff       	callq  400cb0 <fopen@plt>
  400e6a:	48 89 05 3f 3d 20 00 	mov    %rax,0x203d3f(%rip)        # 604bb0 <infile>
  400e71:	48 85 c0             	test   %rax,%rax
  400e74:	0f 84 25 01 00 00    	je     400f9f <main+0x159>
  400e7a:	e8 9e 07 00 00       	callq  40161d <initialize_bomb>
  400e7f:	bf 18 27 40 00       	mov    $0x402718,%edi
  400e84:	e8 27 fd ff ff       	callq  400bb0 <puts@plt>
  400e89:	bf 58 27 40 00       	mov    $0x402758,%edi
  400e8e:	e8 1d fd ff ff       	callq  400bb0 <puts@plt>
  400e93:	e8 6b 0a 00 00       	callq  401903 <read_line>
  400e98:	48 89 c7             	mov    %rax,%rdi
  400e9b:	e8 40 01 00 00       	callq  400fe0 <phase_1>
  400ea0:	e8 8c 0b 00 00       	callq  401a31 <phase_defused>
  400ea5:	bf 88 27 40 00       	mov    $0x402788,%edi
  400eaa:	e8 01 fd ff ff       	callq  400bb0 <puts@plt>
  400eaf:	e8 4f 0a 00 00       	callq  401903 <read_line>
  400eb4:	48 89 c7             	mov    %rax,%rdi
  400eb7:	e8 82 01 00 00       	callq  40103e <phase_2>
  400ebc:	e8 70 0b 00 00       	callq  401a31 <phase_defused>
  400ec1:	bf bd 26 40 00       	mov    $0x4026bd,%edi
  400ec6:	e8 e5 fc ff ff       	callq  400bb0 <puts@plt>
  400ecb:	e8 33 0a 00 00       	callq  401903 <read_line>
  400ed0:	48 89 c7             	mov    %rax,%rdi
  400ed3:	e8 84 01 00 00       	callq  40105c <phase_3>
  400ed8:	e8 54 0b 00 00       	callq  401a31 <phase_defused>
  400edd:	bf db 26 40 00       	mov    $0x4026db,%edi
  400ee2:	e8 c9 fc ff ff       	callq  400bb0 <puts@plt>
  400ee7:	e8 17 0a 00 00       	callq  401903 <read_line>
  400eec:	48 89 c7             	mov    %rax,%rdi
  400eef:	e8 fd 01 00 00       	callq  4010f1 <phase_4>
  400ef4:	e8 38 0b 00 00       	callq  401a31 <phase_defused>
  400ef9:	bf b8 27 40 00       	mov    $0x4027b8,%edi
  400efe:	e8 ad fc ff ff       	callq  400bb0 <puts@plt>
  400f03:	e8 fb 09 00 00       	callq  401903 <read_line>
  400f08:	48 89 c7             	mov    %rax,%rdi
  400f0b:	e8 53 02 00 00       	callq  401163 <phase_5>
  400f10:	e8 1c 0b 00 00       	callq  401a31 <phase_defused>
  400f15:	bf ec 26 40 00       	mov    $0x4026ec,%edi
  400f1a:	e8 91 fc ff ff       	callq  400bb0 <puts@plt>
  400f1f:	e8 df 09 00 00       	callq  401903 <read_line>
  400f24:	48 89 c7             	mov    %rax,%rdi
  400f27:	e8 69 03 00 00       	callq  401295 <phase_6>
  400f2c:	e8 00 0b 00 00       	callq  401a31 <phase_defused>
  400f31:	bf e0 27 40 00       	mov    $0x4027e0,%edi
  400f36:	e8 75 fc ff ff       	callq  400bb0 <puts@plt>
  400f3b:	e8 c3 09 00 00       	callq  401903 <read_line>
  400f40:	48 89 c7             	mov    %rax,%rdi
  400f43:	e8 18 04 00 00       	callq  401360 <phase_7>
  400f48:	e8 e4 0a 00 00       	callq  401a31 <phase_defused>
  400f4d:	bf 00 28 40 00       	mov    $0x402800,%edi
  400f52:	e8 59 fc ff ff       	callq  400bb0 <puts@plt>
  400f57:	e8 a7 09 00 00       	callq  401903 <read_line>
  400f5c:	48 89 c7             	mov    %rax,%rdi
  400f5f:	e8 6c 04 00 00       	callq  4013d0 <phase_8>
  400f64:	e8 c8 0a 00 00       	callq  401a31 <phase_defused>
  400f69:	bf 0a 27 40 00       	mov    $0x40270a,%edi
  400f6e:	e8 3d fc ff ff       	callq  400bb0 <puts@plt>
  400f73:	e8 8b 09 00 00       	callq  401903 <read_line>
  400f78:	48 89 c7             	mov    %rax,%rdi
  400f7b:	e8 c7 04 00 00       	callq  401447 <phase_9>
  400f80:	e8 ac 0a 00 00       	callq  401a31 <phase_defused>
  400f85:	b8 00 00 00 00       	mov    $0x0,%eax
  400f8a:	5b                   	pop    %rbx
  400f8b:	c3                   	retq   
  400f8c:	48 8b 05 fd 3b 20 00 	mov    0x203bfd(%rip),%rax        # 604b90 <stdin@@GLIBC_2.2.5>
  400f93:	48 89 05 16 3c 20 00 	mov    %rax,0x203c16(%rip)        # 604bb0 <infile>
  400f9a:	e9 db fe ff ff       	jmpq   400e7a <main+0x34>
  400f9f:	48 8b 4b 08          	mov    0x8(%rbx),%rcx
  400fa3:	48 8b 13             	mov    (%rbx),%rdx
  400fa6:	be 86 26 40 00       	mov    $0x402686,%esi
  400fab:	bf 01 00 00 00       	mov    $0x1,%edi
  400fb0:	e8 eb fc ff ff       	callq  400ca0 <__printf_chk@plt>
  400fb5:	bf 08 00 00 00       	mov    $0x8,%edi
  400fba:	e8 11 fd ff ff       	callq  400cd0 <exit@plt>
  400fbf:	48 8b 16             	mov    (%rsi),%rdx
  400fc2:	be a3 26 40 00       	mov    $0x4026a3,%esi
  400fc7:	bf 01 00 00 00       	mov    $0x1,%edi
  400fcc:	b8 00 00 00 00       	mov    $0x0,%eax
  400fd1:	e8 ca fc ff ff       	callq  400ca0 <__printf_chk@plt>
  400fd6:	bf 08 00 00 00       	mov    $0x8,%edi
  400fdb:	e8 f0 fc ff ff       	callq  400cd0 <exit@plt>

0000000000400fe0 <phase_1>:
  400fe0:	48 83 ec 18          	sub    $0x18,%rsp
  400fe4:	64 48 8b 04 25 28 00 	mov    %fs:0x28,%rax
  400feb:	00 00 
  400fed:	48 89 44 24 08       	mov    %rax,0x8(%rsp)
  400ff2:	31 c0                	xor    %eax,%eax
  400ff4:	c7 44 24 04 00 00 00 	movl   $0x0,0x4(%rsp)
  400ffb:	00 
  400ffc:	48 8d 54 24 04       	lea    0x4(%rsp),%rdx
  401001:	be f0 2a 40 00       	mov    $0x402af0,%esi
  401006:	e8 85 fc ff ff       	callq  400c90 <__isoc99_sscanf@plt>
  40100b:	83 f8 01             	cmp    $0x1,%eax
  40100e:	74 05                	je     401015 <phase_1+0x35>
  401010:	e8 79 08 00 00       	callq  40188e <explode_bomb>
  401015:	81 7c 24 04 60 02 00 	cmpl   $0x260,0x4(%rsp)
  40101c:	00 
  40101d:	74 05                	je     401024 <phase_1+0x44>
  40101f:	e8 6a 08 00 00       	callq  40188e <explode_bomb>
  401024:	48 8b 44 24 08       	mov    0x8(%rsp),%rax
  401029:	64 48 33 04 25 28 00 	xor    %fs:0x28,%rax
  401030:	00 00 
  401032:	75 05                	jne    401039 <phase_1+0x59>
  401034:	48 83 c4 18          	add    $0x18,%rsp
  401038:	c3                   	retq   
  401039:	e8 92 fb ff ff       	callq  400bd0 <__stack_chk_fail@plt>

000000000040103e <phase_2>:
  40103e:	48 83 ec 08          	sub    $0x8,%rsp
  401042:	be 1f 28 40 00       	mov    $0x40281f,%esi
  401047:	e8 6a 05 00 00       	callq  4015b6 <strings_not_equal>
  40104c:	85 c0                	test   %eax,%eax
  40104e:	75 05                	jne    401055 <phase_2+0x17>
  401050:	48 83 c4 08          	add    $0x8,%rsp
  401054:	c3                   	retq   
  401055:	e8 34 08 00 00       	callq  40188e <explode_bomb>
  40105a:	eb f4                	jmp    401050 <phase_2+0x12>

000000000040105c <phase_3>:
  40105c:	53                   	push   %rbx
  40105d:	48 89 fb             	mov    %rdi,%rbx
  401060:	bf 40 28 40 00       	mov    $0x402840,%edi
  401065:	e8 2e 05 00 00       	callq  401598 <string_length>
  40106a:	8d 78 01             	lea    0x1(%rax),%edi
  40106d:	48 63 ff             	movslq %edi,%rdi
  401070:	e8 fb fb ff ff       	callq  400c70 <malloc@plt>
  401075:	48 ba 49 20 74 75 72 	movabs $0x64656e7275742049,%rdx
  40107c:	6e 65 64 
  40107f:	48 89 10             	mov    %rdx,(%rax)
  401082:	48 b9 20 74 68 65 20 	movabs $0x6f6f6d2065687420,%rcx
  401089:	6d 6f 6f 
  40108c:	48 89 48 08          	mov    %rcx,0x8(%rax)
  401090:	48 be 6e 20 69 6e 74 	movabs $0x73206f746e69206e,%rsi
  401097:	6f 20 73 
  40109a:	48 89 70 10          	mov    %rsi,0x10(%rax)
  40109e:	48 ba 6f 6d 65 74 68 	movabs $0x676e696874656d6f,%rdx
  4010a5:	69 6e 67 
  4010a8:	48 89 50 18          	mov    %rdx,0x18(%rax)
  4010ac:	48 b9 20 49 20 63 61 	movabs $0x206c6c6163204920,%rcx
  4010b3:	6c 6c 20 
  4010b6:	48 89 48 20          	mov    %rcx,0x20(%rax)
  4010ba:	48 be 61 20 44 65 61 	movabs $0x2068746165442061,%rsi
  4010c1:	74 68 20 
  4010c4:	48 89 70 28          	mov    %rsi,0x28(%rax)
  4010c8:	c7 40 30 53 74 61 72 	movl   $0x72617453,0x30(%rax)
  4010cf:	66 c7 40 34 2e 00    	movw   $0x2e,0x34(%rax)
  4010d5:	c6 40 01 67          	movb   $0x67,0x1(%rax)
  4010d9:	48 89 c6             	mov    %rax,%rsi
  4010dc:	48 89 df             	mov    %rbx,%rdi
  4010df:	e8 d2 04 00 00       	callq  4015b6 <strings_not_equal>
  4010e4:	85 c0                	test   %eax,%eax
  4010e6:	75 02                	jne    4010ea <phase_3+0x8e>
  4010e8:	5b                   	pop    %rbx
  4010e9:	c3                   	retq   
  4010ea:	e8 9f 07 00 00       	callq  40188e <explode_bomb>
  4010ef:	eb f7                	jmp    4010e8 <phase_3+0x8c>

00000000004010f1 <phase_4>:
  4010f1:	55                   	push   %rbp
  4010f2:	53                   	push   %rbx
  4010f3:	48 83 ec 28          	sub    $0x28,%rsp
  4010f7:	64 48 8b 04 25 28 00 	mov    %fs:0x28,%rax
  4010fe:	00 00 
  401100:	48 89 44 24 18       	mov    %rax,0x18(%rsp)
  401105:	31 c0                	xor    %eax,%eax
  401107:	48 89 e6             	mov    %rsp,%rsi
  40110a:	e8 b5 07 00 00       	callq  4018c4 <read_six_numbers>
  40110f:	83 3c 24 01          	cmpl   $0x1,(%rsp)
  401113:	74 0f                	je     401124 <phase_4+0x33>
  401115:	e8 74 07 00 00       	callq  40188e <explode_bomb>
  40111a:	48 89 e3             	mov    %rsp,%rbx
  40111d:	48 8d 6c 24 10       	lea    0x10(%rsp),%rbp
  401122:	eb 12                	jmp    401136 <phase_4+0x45>
  401124:	83 7c 24 04 02       	cmpl   $0x2,0x4(%rsp)
  401129:	75 ea                	jne    401115 <phase_4+0x24>
  40112b:	eb ed                	jmp    40111a <phase_4+0x29>
  40112d:	48 83 c3 04          	add    $0x4,%rbx
  401131:	48 39 eb             	cmp    %rbp,%rbx
  401134:	74 11                	je     401147 <phase_4+0x56>
  401136:	8b 43 04             	mov    0x4(%rbx),%eax
  401139:	03 03                	add    (%rbx),%eax
  40113b:	39 43 08             	cmp    %eax,0x8(%rbx)
  40113e:	74 ed                	je     40112d <phase_4+0x3c>
  401140:	e8 49 07 00 00       	callq  40188e <explode_bomb>
  401145:	eb e6                	jmp    40112d <phase_4+0x3c>
  401147:	48 8b 44 24 18       	mov    0x18(%rsp),%rax
  40114c:	64 48 33 04 25 28 00 	xor    %fs:0x28,%rax
  401153:	00 00 
  401155:	75 07                	jne    40115e <phase_4+0x6d>
  401157:	48 83 c4 28          	add    $0x28,%rsp
  40115b:	5b                   	pop    %rbx
  40115c:	5d                   	pop    %rbp
  40115d:	c3                   	retq   
  40115e:	e8 6d fa ff ff       	callq  400bd0 <__stack_chk_fail@plt>

0000000000401163 <phase_5>:
  401163:	41 56                	push   %r14
  401165:	41 55                	push   %r13
  401167:	41 54                	push   %r12
  401169:	55                   	push   %rbp
  40116a:	53                   	push   %rbx
  40116b:	48 83 ec 60          	sub    $0x60,%rsp
  40116f:	64 48 8b 04 25 28 00 	mov    %fs:0x28,%rax
  401176:	00 00 
  401178:	48 89 44 24 58       	mov    %rax,0x58(%rsp)
  40117d:	31 c0                	xor    %eax,%eax
  40117f:	48 89 e6             	mov    %rsp,%rsi
  401182:	e8 3d 07 00 00       	callq  4018c4 <read_six_numbers>
  401187:	49 89 e4             	mov    %rsp,%r12
  40118a:	49 89 e5             	mov    %rsp,%r13
  40118d:	41 be 00 00 00 00    	mov    $0x0,%r14d
  401193:	eb 24                	jmp    4011b9 <phase_5+0x56>
  401195:	41 83 c6 01          	add    $0x1,%r14d
  401199:	41 83 fe 06          	cmp    $0x6,%r14d 
  40119d:	74 37                	je     4011d6 <phase_5+0x73>
  40119f:	44 89 f3             	mov    %r14d,%ebx
  4011a2:	48 63 c3             	movslq %ebx,%rax
  4011a5:	8b 04 84             	mov    (%rsp,%rax,4),%eax
  4011a8:	39 45 00             	cmp    %eax,0x0(%rbp)
  4011ab:	74 22                	je     4011cf <phase_5+0x6c>
  4011ad:	83 c3 01             	add    $0x1,%ebx
  4011b0:	83 fb 05             	cmp    $0x5,%ebx
  4011b3:	7e ed                	jle    4011a2 <phase_5+0x3f>
  4011b5:	49 83 c5 04          	add    $0x4,%r13
  4011b9:	4c 89 ed             	mov    %r13,%rbp
  4011bc:	41 8b 45 00          	mov    0x0(%r13),%eax
  4011c0:	83 e8 01             	sub    $0x1,%eax
  4011c3:	83 f8 05             	cmp    $0x5,%eax
  4011c6:	76 cd                	jbe    401195 <phase_5+0x32>
  4011c8:	e8 c1 06 00 00       	callq  40188e <explode_bomb>
  4011cd:	eb c6                	jmp    401195 <phase_5+0x32>
  4011cf:	e8 ba 06 00 00       	callq  40188e <explode_bomb>
  4011d4:	eb d7                	jmp    4011ad <phase_5+0x4a>
  4011d6:	48 8d 4c 24 18       	lea    0x18(%rsp),%rcx
  4011db:	ba 07 00 00 00       	mov    $0x7,%edx
  4011e0:	89 d0                	mov    %edx,%eax
  4011e2:	41 2b 04 24          	sub    (%r12),%eax
  4011e6:	41 89 04 24          	mov    %eax,(%r12)
  4011ea:	49 83 c4 04          	add    $0x4,%r12
  4011ee:	49 39 cc             	cmp    %rcx,%r12
  4011f1:	75 ed                	jne    4011e0 <phase_5+0x7d>
  4011f3:	be 00 00 00 00       	mov    $0x0,%esi
  4011f8:	8b 0c 34             	mov    (%rsp,%rsi,1),%ecx
  4011fb:	b8 01 00 00 00       	mov    $0x1,%eax
  401200:	ba 00 43 60 00       	mov    $0x604300,%edx
  401205:	83 f9 01             	cmp    $0x1,%ecx
  401208:	7e 0b                	jle    401215 <phase_5+0xb2>
  40120a:	48 8b 52 08          	mov    0x8(%rdx),%rdx
  40120e:	83 c0 01             	add    $0x1,%eax
  401211:	39 c8                	cmp    %ecx,%eax
  401213:	75 f5                	jne    40120a <phase_5+0xa7>
  401215:	48 89 54 74 20       	mov    %rdx,0x20(%rsp,%rsi,2)
  40121a:	48 83 c6 04          	add    $0x4,%rsi
  40121e:	48 83 fe 18          	cmp    $0x18,%rsi
  401222:	75 d4                	jne    4011f8 <phase_5+0x95>
  401224:	48 8b 5c 24 20       	mov    0x20(%rsp),%rbx
  401229:	48 8d 44 24 20       	lea    0x20(%rsp),%rax
  40122e:	48 8d 74 24 48       	lea    0x48(%rsp),%rsi
  401233:	48 89 d9             	mov    %rbx,%rcx
  401236:	48 8b 50 08          	mov    0x8(%rax),%rdx
  40123a:	48 89 51 08          	mov    %rdx,0x8(%rcx)
  40123e:	48 83 c0 08          	add    $0x8,%rax
  401242:	48 89 d1             	mov    %rdx,%rcx
  401245:	48 39 f0             	cmp    %rsi,%rax
  401248:	75 ec                	jne    401236 <phase_5+0xd3>
  40124a:	48 c7 42 08 00 00 00 	movq   $0x0,0x8(%rdx)
  401251:	00 
  401252:	bd 05 00 00 00       	mov    $0x5,%ebp
  401257:	eb 09                	jmp    401262 <phase_5+0xff>
  401259:	48 8b 5b 08          	mov    0x8(%rbx),%rbx
  40125d:	83 ed 01             	sub    $0x1,%ebp
  401260:	74 11                	je     401273 <phase_5+0x110>
  401262:	48 8b 43 08          	mov    0x8(%rbx),%rax
  401266:	8b 00                	mov    (%rax),%eax
  401268:	39 03                	cmp    %eax,(%rbx)
  40126a:	7d ed                	jge    401259 <phase_5+0xf6>
  40126c:	e8 1d 06 00 00       	callq  40188e <explode_bomb>
  401271:	eb e6                	jmp    401259 <phase_5+0xf6>
  401273:	48 8b 44 24 58       	mov    0x58(%rsp),%rax
  401278:	64 48 33 04 25 28 00 	xor    %fs:0x28,%rax
  40127f:	00 00 
  401281:	75 0d                	jne    401290 <phase_5+0x12d>
  401283:	48 83 c4 60          	add    $0x60,%rsp
  401287:	5b                   	pop    %rbx
  401288:	5d                   	pop    %rbp
  401289:	41 5c                	pop    %r12
  40128b:	41 5d                	pop    %r13
  40128d:	41 5e                	pop    %r14
  40128f:	c3                   	retq   
  401290:	e8 3b f9 ff ff       	callq  400bd0 <__stack_chk_fail@plt>

0000000000401295 <phase_6>:
  401295:	48 83 ec 18          	sub    $0x18,%rsp
  401299:	64 48 8b 04 25 28 00 	mov    %fs:0x28,%rax
  4012a0:	00 00 
  4012a2:	48 89 44 24 08       	mov    %rax,0x8(%rsp)
  4012a7:	31 c0                	xor    %eax,%eax
  4012a9:	48 8d 4c 24 04       	lea    0x4(%rsp),%rcx
  4012ae:	48 89 e2             	mov    %rsp,%rdx
  4012b1:	be ed 2a 40 00       	mov    $0x402aed,%esi
  4012b6:	e8 d5 f9 ff ff       	callq  400c90 <__isoc99_sscanf@plt>
  4012bb:	83 f8 01             	cmp    $0x1,%eax ; have more than one argument
  4012be:	7e 57                	jle    401317 <phase_6+0x82>
  4012c0:	8b 04 24             	mov    (%rsp),%eax
  4012c3:	83 e0 0f             	and    $0xf,%eax //get last two bits of eax
  4012c6:	89 04 24             	mov    %eax,(%rsp) 
  4012c9:	83 f8 0f             	cmp    $0xf,%eax //if eax is 15, explode bomb
  4012cc:	74 2f                	je     4012fd <phase_6+0x68>
  4012ce:	b9 00 00 00 00       	mov    $0x0,%ecx
  4012d3:	ba 00 00 00 00       	mov    $0x0,%edx
  4012d8:	83 c2 01             	add    $0x1,%edx
  4012db:	48 98                	cltq   
  4012dd:	8b 04 85 c0 28 40 00 	mov    0x4028c0(,%rax,4),%eax
  4012e4:	01 c1                	add    %eax,%ecx
  4012e6:	83 f8 0f             	cmp    $0xf,%eax
  4012e9:	75 ed                	jne    4012d8 <phase_6+0x43>
  4012eb:	c7 04 24 0f 00 00 00 	movl   $0xf,(%rsp)
  4012f2:	83 fa 05             	cmp    $0x5,%edx
  4012f5:	75 06                	jne    4012fd <phase_6+0x68>
  4012f7:	3b 4c 24 04          	cmp    0x4(%rsp),%ecx
  4012fb:	74 05                	je     401302 <phase_6+0x6d>
  4012fd:	e8 8c 05 00 00       	callq  40188e <explode_bomb>
  401302:	48 8b 44 24 08       	mov    0x8(%rsp),%rax
  401307:	64 48 33 04 25 28 00 	xor    %fs:0x28,%rax
  40130e:	00 00 
  401310:	75 0c                	jne    40131e <phase_6+0x89>
  401312:	48 83 c4 18          	add    $0x18,%rsp
  401316:	c3                   	retq   
  401317:	e8 72 05 00 00       	callq  40188e <explode_bomb>
  40131c:	eb a2                	jmp    4012c0 <phase_6+0x2b>
  40131e:	e8 ad f8 ff ff       	callq  400bd0 <__stack_chk_fail@plt>

0000000000401323 <fun7>:
  401323:	48 85 ff             	test   %rdi,%rdi
  401326:	74 32                	je     40135a <fun7+0x37>
  401328:	48 83 ec 08          	sub    $0x8,%rsp
  40132c:	8b 17                	mov    (%rdi),%edx
  40132e:	39 f2                	cmp    %esi,%edx
  401330:	7f 1b                	jg     40134d <fun7+0x2a>
  401332:	b8 00 00 00 00       	mov    $0x0,%eax
  401337:	39 f2                	cmp    %esi,%edx
  401339:	74 0d                	je     401348 <fun7+0x25>
  40133b:	48 8b 7f 10          	mov    0x10(%rdi),%rdi
  40133f:	e8 df ff ff ff       	callq  401323 <fun7>
  401344:	8d 44 00 01          	lea    0x1(%rax,%rax,1),%eax
  401348:	48 83 c4 08          	add    $0x8,%rsp
  40134c:	c3                   	retq   
  40134d:	48 8b 7f 08          	mov    0x8(%rdi),%rdi
  401351:	e8 cd ff ff ff       	callq  401323 <fun7>
  401356:	01 c0                	add    %eax,%eax
  401358:	eb ee                	jmp    401348 <fun7+0x25>
  40135a:	b8 ff ff ff ff       	mov    $0xffffffff,%eax
  40135f:	c3                   	retq   

0000000000401360 <phase_7>:
  401360:	53                   	push   %rbx
  401361:	ba 0a 00 00 00       	mov    $0xa,%edx
  401366:	be 00 00 00 00       	mov    $0x0,%esi
  40136b:	e8 f0 f8 ff ff       	callq  400c60 <strtol@plt>
  401370:	48 89 c3             	mov    %rax,%rbx
  401373:	8d 40 ff             	lea    -0x1(%rax),%eax
  401376:	3d ec 03 00 00       	cmp    $0x3ec,%eax
  40137b:	77 18                	ja     401395 <phase_7+0x35>
  40137d:	89 de                	mov    %ebx,%esi
  40137f:	bf 20 41 60 00       	mov    $0x604120,%edi
  401384:	e8 9a ff ff ff       	callq  401323 <fun7>
  401389:	83 f8 02             	cmp    $0x2,%eax
  40138c:	74 05                	je     401393 <phase_7+0x33>
  40138e:	e8 fb 04 00 00       	callq  40188e <explode_bomb>
  401393:	5b                   	pop    %rbx
  401394:	c3                   	retq   
  401395:	e8 f4 04 00 00       	callq  40188e <explode_bomb>
  40139a:	eb e1                	jmp    40137d <phase_7+0x1d>

000000000040139c <fun8>:
  40139c:	53                   	push   %rbx
  40139d:	89 d0                	mov    %edx,%eax
  40139f:	29 f0                	sub    %esi,%eax
  4013a1:	89 c3                	mov    %eax,%ebx
  4013a3:	c1 eb 1f             	shr    $0x1f,%ebx
  4013a6:	01 c3                	add    %eax,%ebx
  4013a8:	d1 fb                	sar    %ebx
  4013aa:	01 f3                	add    %esi,%ebx
  4013ac:	39 fb                	cmp    %edi,%ebx
  4013ae:	7f 08                	jg     4013b8 <fun8+0x1c>
  4013b0:	39 fb                	cmp    %edi,%ebx
  4013b2:	7c 10                	jl     4013c4 <fun8+0x28>
  4013b4:	89 d8                	mov    %ebx,%eax
  4013b6:	5b                   	pop    %rbx
  4013b7:	c3                   	retq   
  4013b8:	8d 53 ff             	lea    -0x1(%rbx),%edx
  4013bb:	e8 dc ff ff ff       	callq  40139c <fun8>
  4013c0:	01 c3                	add    %eax,%ebx
  4013c2:	eb f0                	jmp    4013b4 <fun8+0x18>
  4013c4:	8d 73 01             	lea    0x1(%rbx),%esi
  4013c7:	e8 d0 ff ff ff       	callq  40139c <fun8>
  4013cc:	01 c3                	add    %eax,%ebx
  4013ce:	eb e4                	jmp    4013b4 <fun8+0x18>

00000000004013d0 <phase_8>:
  4013d0:	48 83 ec 18          	sub    $0x18,%rsp
  4013d4:	64 48 8b 04 25 28 00 	mov    %fs:0x28,%rax
  4013db:	00 00 
  4013dd:	48 89 44 24 08       	mov    %rax,0x8(%rsp)
  4013e2:	31 c0                	xor    %eax,%eax
  4013e4:	48 8d 4c 24 04       	lea    0x4(%rsp),%rcx
  4013e9:	48 89 e2             	mov    %rsp,%rdx
  4013ec:	be ed 2a 40 00       	mov    $0x402aed,%esi
  4013f1:	e8 9a f8 ff ff       	callq  400c90 <__isoc99_sscanf@plt>
  4013f6:	83 f8 02             	cmp    $0x2,%eax
  4013f9:	74 36                	je     401431 <phase_8+0x61>
  4013fb:	e8 8e 04 00 00       	callq  40188e <explode_bomb>
  401400:	ba 0e 00 00 00       	mov    $0xe,%edx
  401405:	be 00 00 00 00       	mov    $0x0,%esi
  40140a:	8b 3c 24             	mov    (%rsp),%edi
  40140d:	e8 8a ff ff ff       	callq  40139c <fun8>
  401412:	83 f8 2d             	cmp    $0x2d,%eax
  401415:	74 22                	je     401439 <phase_8+0x69>
  401417:	e8 72 04 00 00       	callq  40188e <explode_bomb>
  40141c:	48 8b 44 24 08       	mov    0x8(%rsp),%rax
  401421:	64 48 33 04 25 28 00 	xor    %fs:0x28,%rax
  401428:	00 00 
  40142a:	75 16                	jne    401442 <phase_8+0x72>
  40142c:	48 83 c4 18          	add    $0x18,%rsp
  401430:	c3                   	retq   
  401431:	83 3c 24 0e          	cmpl   $0xe,(%rsp)
  401435:	76 c9                	jbe    401400 <phase_8+0x30>
  401437:	eb c2                	jmp    4013fb <phase_8+0x2b>
  401439:	83 7c 24 04 2d       	cmpl   $0x2d,0x4(%rsp)
  40143e:	75 d7                	jne    401417 <phase_8+0x47>
  401440:	eb da                	jmp    40141c <phase_8+0x4c>
  401442:	e8 89 f7 ff ff       	callq  400bd0 <__stack_chk_fail@plt>

0000000000401447 <phase_9>:
  401447:	48 83 ec 18          	sub    $0x18,%rsp
  40144b:	64 48 8b 04 25 28 00 	mov    %fs:0x28,%rax
  401452:	00 00 
  401454:	48 89 44 24 08       	mov    %rax,0x8(%rsp)
  401459:	31 c0                	xor    %eax,%eax
  40145b:	48 8d 4c 24 04       	lea    0x4(%rsp),%rcx
  401460:	48 89 e2             	mov    %rsp,%rdx
  401463:	be ed 2a 40 00       	mov    $0x402aed,%esi
  401468:	e8 23 f8 ff ff       	callq  400c90 <__isoc99_sscanf@plt>
  40146d:	83 f8 01             	cmp    $0x1,%eax
  401470:	7e 14                	jle    401486 <phase_9+0x3f>
  401472:	83 3c 24 07          	cmpl   $0x7,(%rsp)
  401476:	0f 87 90 00 00 00    	ja     40150c <phase_9+0xc5>
  40147c:	8b 04 24             	mov    (%rsp),%eax
  40147f:	ff 24 c5 80 28 40 00 	jmpq   *0x402880(,%rax,8)
  401486:	e8 03 04 00 00       	callq  40188e <explode_bomb>
  40148b:	eb e5                	jmp    401472 <phase_9+0x2b>
  40148d:	b8 67 00 00 00       	mov    $0x67,%eax
  401492:	eb 05                	jmp    401499 <phase_9+0x52>
  401494:	b8 00 00 00 00       	mov    $0x0,%eax
  401499:	2d f9 01 00 00       	sub    $0x1f9,%eax
  40149e:	05 c7 03 00 00       	add    $0x3c7,%eax
  4014a3:	2d 18 03 00 00       	sub    $0x318,%eax
  4014a8:	05 18 03 00 00       	add    $0x318,%eax
  4014ad:	2d 18 03 00 00       	sub    $0x318,%eax
  4014b2:	05 18 03 00 00       	add    $0x318,%eax
  4014b7:	2d 18 03 00 00       	sub    $0x318,%eax
  4014bc:	83 3c 24 05          	cmpl   $0x5,(%rsp)
  4014c0:	7f 06                	jg     4014c8 <phase_9+0x81>
  4014c2:	3b 44 24 04          	cmp    0x4(%rsp),%eax
  4014c6:	74 05                	je     4014cd <phase_9+0x86>
  4014c8:	e8 c1 03 00 00       	callq  40188e <explode_bomb>
  4014cd:	48 8b 44 24 08       	mov    0x8(%rsp),%rax
  4014d2:	64 48 33 04 25 28 00 	xor    %fs:0x28,%rax
  4014d9:	00 00 
  4014db:	75 3b                	jne    401518 <phase_9+0xd1>
  4014dd:	48 83 c4 18          	add    $0x18,%rsp
  4014e1:	c3                   	retq   
  4014e2:	b8 00 00 00 00       	mov    $0x0,%eax
  4014e7:	eb b5                	jmp    40149e <phase_9+0x57>
  4014e9:	b8 00 00 00 00       	mov    $0x0,%eax
  4014ee:	eb b3                	jmp    4014a3 <phase_9+0x5c>
  4014f0:	b8 00 00 00 00       	mov    $0x0,%eax
  4014f5:	eb b1                	jmp    4014a8 <phase_9+0x61>
  4014f7:	b8 00 00 00 00       	mov    $0x0,%eax
  4014fc:	eb af                	jmp    4014ad <phase_9+0x66>
  4014fe:	b8 00 00 00 00       	mov    $0x0,%eax
  401503:	eb ad                	jmp    4014b2 <phase_9+0x6b>
  401505:	b8 00 00 00 00       	mov    $0x0,%eax
  40150a:	eb ab                	jmp    4014b7 <phase_9+0x70>
  40150c:	e8 7d 03 00 00       	callq  40188e <explode_bomb>
  401511:	b8 00 00 00 00       	mov    $0x0,%eax
  401516:	eb a4                	jmp    4014bc <phase_9+0x75>
  401518:	e8 b3 f6 ff ff       	callq  400bd0 <__stack_chk_fail@plt>

000000000040151d <sig_handler>:
  40151d:	48 83 ec 08          	sub    $0x8,%rsp
  401521:	bf 00 29 40 00       	mov    $0x402900,%edi
  401526:	e8 85 f6 ff ff       	callq  400bb0 <puts@plt>
  40152b:	bf 03 00 00 00       	mov    $0x3,%edi
  401530:	e8 cb f7 ff ff       	callq  400d00 <sleep@plt>
  401535:	be 69 2a 40 00       	mov    $0x402a69,%esi
  40153a:	bf 01 00 00 00       	mov    $0x1,%edi
  40153f:	b8 00 00 00 00       	mov    $0x0,%eax
  401544:	e8 57 f7 ff ff       	callq  400ca0 <__printf_chk@plt>
  401549:	48 8b 3d 30 36 20 00 	mov    0x203630(%rip),%rdi        # 604b80 <stdout@@GLIBC_2.2.5>
  401550:	e8 2b f7 ff ff       	callq  400c80 <fflush@plt>
  401555:	bf 01 00 00 00       	mov    $0x1,%edi
  40155a:	e8 a1 f7 ff ff       	callq  400d00 <sleep@plt>
  40155f:	bf 71 2a 40 00       	mov    $0x402a71,%edi
  401564:	e8 47 f6 ff ff       	callq  400bb0 <puts@plt>
  401569:	bf 10 00 00 00       	mov    $0x10,%edi
  40156e:	e8 5d f7 ff ff       	callq  400cd0 <exit@plt>

0000000000401573 <invalid_phase>:
  401573:	48 83 ec 08          	sub    $0x8,%rsp
  401577:	48 89 fa             	mov    %rdi,%rdx
  40157a:	be 79 2a 40 00       	mov    $0x402a79,%esi
  40157f:	bf 01 00 00 00       	mov    $0x1,%edi
  401584:	b8 00 00 00 00       	mov    $0x0,%eax
  401589:	e8 12 f7 ff ff       	callq  400ca0 <__printf_chk@plt>
  40158e:	bf 08 00 00 00       	mov    $0x8,%edi
  401593:	e8 38 f7 ff ff       	callq  400cd0 <exit@plt>

0000000000401598 <string_length>:
  401598:	80 3f 00             	cmpb   $0x0,(%rdi)
  40159b:	74 13                	je     4015b0 <string_length+0x18>
  40159d:	b8 00 00 00 00       	mov    $0x0,%eax
  4015a2:	48 83 c7 01          	add    $0x1,%rdi
  4015a6:	83 c0 01             	add    $0x1,%eax
  4015a9:	80 3f 00             	cmpb   $0x0,(%rdi)
  4015ac:	75 f4                	jne    4015a2 <string_length+0xa>
  4015ae:	f3 c3                	repz retq 
  4015b0:	b8 00 00 00 00       	mov    $0x0,%eax
  4015b5:	c3                   	retq   

00000000004015b6 <strings_not_equal>:
  4015b6:	41 54                	push   %r12
  4015b8:	55                   	push   %rbp
  4015b9:	53                   	push   %rbx
  4015ba:	48 89 fb             	mov    %rdi,%rbx
  4015bd:	48 89 f5             	mov    %rsi,%rbp
  4015c0:	e8 d3 ff ff ff       	callq  401598 <string_length>
  4015c5:	41 89 c4             	mov    %eax,%r12d
  4015c8:	48 89 ef             	mov    %rbp,%rdi
  4015cb:	e8 c8 ff ff ff       	callq  401598 <string_length>
  4015d0:	ba 01 00 00 00       	mov    $0x1,%edx
  4015d5:	41 39 c4             	cmp    %eax,%r12d
  4015d8:	74 07                	je     4015e1 <strings_not_equal+0x2b>
  4015da:	89 d0                	mov    %edx,%eax
  4015dc:	5b                   	pop    %rbx
  4015dd:	5d                   	pop    %rbp
  4015de:	41 5c                	pop    %r12
  4015e0:	c3                   	retq   
  4015e1:	0f b6 03             	movzbl (%rbx),%eax
  4015e4:	84 c0                	test   %al,%al
  4015e6:	74 27                	je     40160f <strings_not_equal+0x59>
  4015e8:	3a 45 00             	cmp    0x0(%rbp),%al
  4015eb:	75 29                	jne    401616 <strings_not_equal+0x60>
  4015ed:	48 83 c3 01          	add    $0x1,%rbx
  4015f1:	48 83 c5 01          	add    $0x1,%rbp
  4015f5:	0f b6 03             	movzbl (%rbx),%eax
  4015f8:	84 c0                	test   %al,%al
  4015fa:	74 0c                	je     401608 <strings_not_equal+0x52>
  4015fc:	3a 45 00             	cmp    0x0(%rbp),%al
  4015ff:	74 ec                	je     4015ed <strings_not_equal+0x37>
  401601:	ba 01 00 00 00       	mov    $0x1,%edx
  401606:	eb d2                	jmp    4015da <strings_not_equal+0x24>
  401608:	ba 00 00 00 00       	mov    $0x0,%edx
  40160d:	eb cb                	jmp    4015da <strings_not_equal+0x24>
  40160f:	ba 00 00 00 00       	mov    $0x0,%edx
  401614:	eb c4                	jmp    4015da <strings_not_equal+0x24>
  401616:	ba 01 00 00 00       	mov    $0x1,%edx
  40161b:	eb bd                	jmp    4015da <strings_not_equal+0x24>

000000000040161d <initialize_bomb>:
  40161d:	53                   	push   %rbx
  40161e:	48 81 ec 50 20 00 00 	sub    $0x2050,%rsp
  401625:	64 48 8b 04 25 28 00 	mov    %fs:0x28,%rax
  40162c:	00 00 
  40162e:	48 89 84 24 48 20 00 	mov    %rax,0x2048(%rsp)
  401635:	00 
  401636:	31 c0                	xor    %eax,%eax
  401638:	be 1d 15 40 00       	mov    $0x40151d,%esi
  40163d:	bf 02 00 00 00       	mov    $0x2,%edi
  401642:	e8 e9 f5 ff ff       	callq  400c30 <signal@plt>
  401647:	be 40 00 00 00       	mov    $0x40,%esi
  40164c:	48 89 e7             	mov    %rsp,%rdi
  40164f:	e8 6c f6 ff ff       	callq  400cc0 <gethostname@plt>
  401654:	85 c0                	test   %eax,%eax
  401656:	75 46                	jne    40169e <initialize_bomb+0x81>
  401658:	48 8b 3d 21 31 20 00 	mov    0x203121(%rip),%rdi        # 604780 <host_table>
  40165f:	bb 88 47 60 00       	mov    $0x604788,%ebx
  401664:	48 85 ff             	test   %rdi,%rdi
  401667:	74 19                	je     401682 <initialize_bomb+0x65>
  401669:	48 89 e6             	mov    %rsp,%rsi
  40166c:	e8 0f f5 ff ff       	callq  400b80 <strcasecmp@plt>
  401671:	85 c0                	test   %eax,%eax
  401673:	74 60                	je     4016d5 <initialize_bomb+0xb8>
  401675:	48 83 c3 08          	add    $0x8,%rbx
  401679:	48 8b 7b f8          	mov    -0x8(%rbx),%rdi
  40167d:	48 85 ff             	test   %rdi,%rdi
  401680:	75 e7                	jne    401669 <initialize_bomb+0x4c>
  401682:	bf 70 29 40 00       	mov    $0x402970,%edi
  401687:	e8 24 f5 ff ff       	callq  400bb0 <puts@plt>
  40168c:	48 89 e7             	mov    %rsp,%rdi
  40168f:	e8 1c f5 ff ff       	callq  400bb0 <puts@plt>
  401694:	bf 08 00 00 00       	mov    $0x8,%edi
  401699:	e8 32 f6 ff ff       	callq  400cd0 <exit@plt>
  40169e:	bf 38 29 40 00       	mov    $0x402938,%edi
  4016a3:	e8 08 f5 ff ff       	callq  400bb0 <puts@plt>
  4016a8:	bf 08 00 00 00       	mov    $0x8,%edi
  4016ad:	e8 1e f6 ff ff       	callq  400cd0 <exit@plt>
  4016b2:	48 8d 54 24 40       	lea    0x40(%rsp),%rdx
  4016b7:	be 8a 2a 40 00       	mov    $0x402a8a,%esi
  4016bc:	bf 01 00 00 00       	mov    $0x1,%edi
  4016c1:	b8 00 00 00 00       	mov    $0x0,%eax
  4016c6:	e8 d5 f5 ff ff       	callq  400ca0 <__printf_chk@plt>
  4016cb:	bf 08 00 00 00       	mov    $0x8,%edi
  4016d0:	e8 fb f5 ff ff       	callq  400cd0 <exit@plt>
  4016d5:	48 8d 7c 24 40       	lea    0x40(%rsp),%rdi
  4016da:	e8 cb 0c 00 00       	callq  4023aa <init_driver>
  4016df:	85 c0                	test   %eax,%eax
  4016e1:	78 cf                	js     4016b2 <initialize_bomb+0x95>
  4016e3:	48 8b 84 24 48 20 00 	mov    0x2048(%rsp),%rax
  4016ea:	00 
  4016eb:	64 48 33 04 25 28 00 	xor    %fs:0x28,%rax
  4016f2:	00 00 
  4016f4:	75 09                	jne    4016ff <initialize_bomb+0xe2>
  4016f6:	48 81 c4 50 20 00 00 	add    $0x2050,%rsp
  4016fd:	5b                   	pop    %rbx
  4016fe:	c3                   	retq   
  4016ff:	e8 cc f4 ff ff       	callq  400bd0 <__stack_chk_fail@plt>

0000000000401704 <initialize_bomb_solve>:
  401704:	f3 c3                	repz retq 

0000000000401706 <blank_line>:
  401706:	55                   	push   %rbp
  401707:	53                   	push   %rbx
  401708:	48 83 ec 08          	sub    $0x8,%rsp
  40170c:	48 89 fd             	mov    %rdi,%rbp
  40170f:	0f b6 5d 00          	movzbl 0x0(%rbp),%ebx
  401713:	84 db                	test   %bl,%bl
  401715:	74 1e                	je     401735 <blank_line+0x2f>
  401717:	e8 f4 f5 ff ff       	callq  400d10 <__ctype_b_loc@plt>
  40171c:	48 83 c5 01          	add    $0x1,%rbp
  401720:	48 0f be db          	movsbq %bl,%rbx
  401724:	48 8b 00             	mov    (%rax),%rax
  401727:	f6 44 58 01 20       	testb  $0x20,0x1(%rax,%rbx,2)
  40172c:	75 e1                	jne    40170f <blank_line+0x9>
  40172e:	b8 00 00 00 00       	mov    $0x0,%eax
  401733:	eb 05                	jmp    40173a <blank_line+0x34>
  401735:	b8 01 00 00 00       	mov    $0x1,%eax
  40173a:	48 83 c4 08          	add    $0x8,%rsp
  40173e:	5b                   	pop    %rbx
  40173f:	5d                   	pop    %rbp
  401740:	c3                   	retq   

0000000000401741 <skip>:
  401741:	53                   	push   %rbx
  401742:	48 63 05 63 34 20 00 	movslq 0x203463(%rip),%rax        # 604bac <num_input_strings>
  401749:	48 8d 3c 80          	lea    (%rax,%rax,4),%rdi
  40174d:	48 c1 e7 04          	shl    $0x4,%rdi
  401751:	48 81 c7 c0 4b 60 00 	add    $0x604bc0,%rdi
  401758:	48 8b 15 51 34 20 00 	mov    0x203451(%rip),%rdx        # 604bb0 <infile>
  40175f:	be 50 00 00 00       	mov    $0x50,%esi
  401764:	e8 b7 f4 ff ff       	callq  400c20 <fgets@plt>
  401769:	48 89 c3             	mov    %rax,%rbx
  40176c:	48 85 c0             	test   %rax,%rax
  40176f:	74 0c                	je     40177d <skip+0x3c>
  401771:	48 89 c7             	mov    %rax,%rdi
  401774:	e8 8d ff ff ff       	callq  401706 <blank_line>
  401779:	85 c0                	test   %eax,%eax
  40177b:	75 c5                	jne    401742 <skip+0x1>
  40177d:	48 89 d8             	mov    %rbx,%rax
  401780:	5b                   	pop    %rbx
  401781:	c3                   	retq   

0000000000401782 <send_msg>:
  401782:	48 81 ec 18 40 00 00 	sub    $0x4018,%rsp
  401789:	41 89 f8             	mov    %edi,%r8d
  40178c:	64 48 8b 04 25 28 00 	mov    %fs:0x28,%rax
  401793:	00 00 
  401795:	48 89 84 24 08 40 00 	mov    %rax,0x4008(%rsp)
  40179c:	00 
  40179d:	31 c0                	xor    %eax,%eax
  40179f:	8b 35 07 34 20 00    	mov    0x203407(%rip),%esi        # 604bac <num_input_strings>
  4017a5:	8d 46 ff             	lea    -0x1(%rsi),%eax
  4017a8:	48 98                	cltq   
  4017aa:	48 8d 14 80          	lea    (%rax,%rax,4),%rdx
  4017ae:	48 c1 e2 04          	shl    $0x4,%rdx
  4017b2:	48 81 c2 c0 4b 60 00 	add    $0x604bc0,%rdx
  4017b9:	b8 00 00 00 00       	mov    $0x0,%eax
  4017be:	48 c7 c1 ff ff ff ff 	mov    $0xffffffffffffffff,%rcx
  4017c5:	48 89 d7             	mov    %rdx,%rdi
  4017c8:	f2 ae                	repnz scas %es:(%rdi),%al
  4017ca:	48 89 c8             	mov    %rcx,%rax
  4017cd:	48 f7 d0             	not    %rax
  4017d0:	48 83 c0 63          	add    $0x63,%rax
  4017d4:	48 3d 00 20 00 00    	cmp    $0x2000,%rax
  4017da:	77 78                	ja     401854 <send_msg+0xd2>
  4017dc:	45 85 c0             	test   %r8d,%r8d
  4017df:	b8 ac 2a 40 00       	mov    $0x402aac,%eax
  4017e4:	41 b9 a4 2a 40 00    	mov    $0x402aa4,%r9d
  4017ea:	4c 0f 44 c8          	cmove  %rax,%r9
  4017ee:	52                   	push   %rdx
  4017ef:	56                   	push   %rsi
  4017f0:	44 8b 05 69 2f 20 00 	mov    0x202f69(%rip),%r8d        # 604760 <bomb_id>
  4017f7:	b9 b5 2a 40 00       	mov    $0x402ab5,%ecx
  4017fc:	ba 00 20 00 00       	mov    $0x2000,%edx
  401801:	be 01 00 00 00       	mov    $0x1,%esi
  401806:	48 8d 7c 24 10       	lea    0x10(%rsp),%rdi
  40180b:	b8 00 00 00 00       	mov    $0x0,%eax
  401810:	e8 0b f5 ff ff       	callq  400d20 <__sprintf_chk@plt>
  401815:	48 8d 8c 24 10 20 00 	lea    0x2010(%rsp),%rcx
  40181c:	00 
  40181d:	ba 00 00 00 00       	mov    $0x0,%edx
  401822:	48 8d 74 24 10       	lea    0x10(%rsp),%rsi
  401827:	bf 60 43 60 00       	mov    $0x604360,%edi
  40182c:	e8 5e 0d 00 00       	callq  40258f <driver_post>
  401831:	48 83 c4 10          	add    $0x10,%rsp
  401835:	85 c0                	test   %eax,%eax
  401837:	78 39                	js     401872 <send_msg+0xf0>
  401839:	48 8b 84 24 08 40 00 	mov    0x4008(%rsp),%rax
  401840:	00 
  401841:	64 48 33 04 25 28 00 	xor    %fs:0x28,%rax
  401848:	00 00 
  40184a:	75 3d                	jne    401889 <send_msg+0x107>
  40184c:	48 81 c4 18 40 00 00 	add    $0x4018,%rsp
  401853:	c3                   	retq   
  401854:	be a8 29 40 00       	mov    $0x4029a8,%esi
  401859:	bf 01 00 00 00       	mov    $0x1,%edi
  40185e:	b8 00 00 00 00       	mov    $0x0,%eax
  401863:	e8 38 f4 ff ff       	callq  400ca0 <__printf_chk@plt>
  401868:	bf 08 00 00 00       	mov    $0x8,%edi
  40186d:	e8 5e f4 ff ff       	callq  400cd0 <exit@plt>
  401872:	48 8d bc 24 00 20 00 	lea    0x2000(%rsp),%rdi
  401879:	00 
  40187a:	e8 31 f3 ff ff       	callq  400bb0 <puts@plt>
  40187f:	bf 00 00 00 00       	mov    $0x0,%edi
  401884:	e8 47 f4 ff ff       	callq  400cd0 <exit@plt>
  401889:	e8 42 f3 ff ff       	callq  400bd0 <__stack_chk_fail@plt>

000000000040188e <explode_bomb>:
  40188e:	48 83 ec 08          	sub    $0x8,%rsp
  401892:	bf c1 2a 40 00       	mov    $0x402ac1,%edi
  401897:	e8 14 f3 ff ff       	callq  400bb0 <puts@plt>
  40189c:	bf ca 2a 40 00       	mov    $0x402aca,%edi
  4018a1:	e8 0a f3 ff ff       	callq  400bb0 <puts@plt>
  4018a6:	bf 00 00 00 00       	mov    $0x0,%edi
  4018ab:	e8 d2 fe ff ff       	callq  401782 <send_msg>
  4018b0:	bf d0 29 40 00       	mov    $0x4029d0,%edi
  4018b5:	e8 f6 f2 ff ff       	callq  400bb0 <puts@plt>
  4018ba:	bf 08 00 00 00       	mov    $0x8,%edi
  4018bf:	e8 0c f4 ff ff       	callq  400cd0 <exit@plt>

00000000004018c4 <read_six_numbers>:
  4018c4:	48 83 ec 08          	sub    $0x8,%rsp
  4018c8:	48 89 f2             	mov    %rsi,%rdx
  4018cb:	48 8d 4e 04          	lea    0x4(%rsi),%rcx
  4018cf:	48 8d 46 14          	lea    0x14(%rsi),%rax
  4018d3:	50                   	push   %rax
  4018d4:	48 8d 46 10          	lea    0x10(%rsi),%rax
  4018d8:	50                   	push   %rax
  4018d9:	4c 8d 4e 0c          	lea    0xc(%rsi),%r9
  4018dd:	4c 8d 46 08          	lea    0x8(%rsi),%r8
  4018e1:	be e1 2a 40 00       	mov    $0x402ae1,%esi
  4018e6:	b8 00 00 00 00       	mov    $0x0,%eax
  4018eb:	e8 a0 f3 ff ff       	callq  400c90 <__isoc99_sscanf@plt>
  4018f0:	48 83 c4 10          	add    $0x10,%rsp
  4018f4:	83 f8 05             	cmp    $0x5,%eax
  4018f7:	7e 05                	jle    4018fe <read_six_numbers+0x3a>
  4018f9:	48 83 c4 08          	add    $0x8,%rsp
  4018fd:	c3                   	retq   
  4018fe:	e8 8b ff ff ff       	callq  40188e <explode_bomb>

0000000000401903 <read_line>:
  401903:	48 83 ec 08          	sub    $0x8,%rsp
  401907:	b8 00 00 00 00       	mov    $0x0,%eax
  40190c:	e8 30 fe ff ff       	callq  401741 <skip>
  401911:	48 85 c0             	test   %rax,%rax
  401914:	74 63                	je     401979 <read_line+0x76>
  401916:	8b 35 90 32 20 00    	mov    0x203290(%rip),%esi        # 604bac <num_input_strings>
  40191c:	48 63 c6             	movslq %esi,%rax
  40191f:	48 8d 14 80          	lea    (%rax,%rax,4),%rdx
  401923:	48 c1 e2 04          	shl    $0x4,%rdx
  401927:	48 81 c2 c0 4b 60 00 	add    $0x604bc0,%rdx
  40192e:	b8 00 00 00 00       	mov    $0x0,%eax
  401933:	48 c7 c1 ff ff ff ff 	mov    $0xffffffffffffffff,%rcx
  40193a:	48 89 d7             	mov    %rdx,%rdi
  40193d:	f2 ae                	repnz scas %es:(%rdi),%al
  40193f:	48 f7 d1             	not    %rcx
  401942:	48 83 e9 01          	sub    $0x1,%rcx
  401946:	83 f9 4e             	cmp    $0x4e,%ecx
  401949:	0f 8f 9c 00 00 00    	jg     4019eb <read_line+0xe8>
  40194f:	83 e9 01             	sub    $0x1,%ecx
  401952:	48 63 c9             	movslq %ecx,%rcx
  401955:	48 63 c6             	movslq %esi,%rax
  401958:	48 8d 04 80          	lea    (%rax,%rax,4),%rax
  40195c:	48 c1 e0 04          	shl    $0x4,%rax
  401960:	c6 84 01 c0 4b 60 00 	movb   $0x0,0x604bc0(%rcx,%rax,1)
  401967:	00 
  401968:	8d 46 01             	lea    0x1(%rsi),%eax
  40196b:	89 05 3b 32 20 00    	mov    %eax,0x20323b(%rip)        # 604bac <num_input_strings>
  401971:	48 89 d0             	mov    %rdx,%rax
  401974:	48 83 c4 08          	add    $0x8,%rsp
  401978:	c3                   	retq   
  401979:	48 8b 05 10 32 20 00 	mov    0x203210(%rip),%rax        # 604b90 <stdin@@GLIBC_2.2.5>
  401980:	48 39 05 29 32 20 00 	cmp    %rax,0x203229(%rip)        # 604bb0 <infile>
  401987:	74 44                	je     4019cd <read_line+0xca>
  401989:	bf 11 2b 40 00       	mov    $0x402b11,%edi
  40198e:	e8 dd f1 ff ff       	callq  400b70 <getenv@plt>
  401993:	48 85 c0             	test   %rax,%rax
  401996:	75 49                	jne    4019e1 <read_line+0xde>
  401998:	48 8b 05 f1 31 20 00 	mov    0x2031f1(%rip),%rax        # 604b90 <stdin@@GLIBC_2.2.5>
  40199f:	48 89 05 0a 32 20 00 	mov    %rax,0x20320a(%rip)        # 604bb0 <infile>
  4019a6:	b8 00 00 00 00       	mov    $0x0,%eax
  4019ab:	e8 91 fd ff ff       	callq  401741 <skip>
  4019b0:	48 85 c0             	test   %rax,%rax
  4019b3:	0f 85 5d ff ff ff    	jne    401916 <read_line+0x13>
  4019b9:	bf f3 2a 40 00       	mov    $0x402af3,%edi
  4019be:	e8 ed f1 ff ff       	callq  400bb0 <puts@plt>
  4019c3:	bf 00 00 00 00       	mov    $0x0,%edi
  4019c8:	e8 03 f3 ff ff       	callq  400cd0 <exit@plt>
  4019cd:	bf f3 2a 40 00       	mov    $0x402af3,%edi
  4019d2:	e8 d9 f1 ff ff       	callq  400bb0 <puts@plt>
  4019d7:	bf 08 00 00 00       	mov    $0x8,%edi
  4019dc:	e8 ef f2 ff ff       	callq  400cd0 <exit@plt>
  4019e1:	bf 00 00 00 00       	mov    $0x0,%edi
  4019e6:	e8 e5 f2 ff ff       	callq  400cd0 <exit@plt>
  4019eb:	bf 1c 2b 40 00       	mov    $0x402b1c,%edi
  4019f0:	e8 bb f1 ff ff       	callq  400bb0 <puts@plt>
  4019f5:	8b 05 b1 31 20 00    	mov    0x2031b1(%rip),%eax        # 604bac <num_input_strings>
  4019fb:	8d 50 01             	lea    0x1(%rax),%edx
  4019fe:	89 15 a8 31 20 00    	mov    %edx,0x2031a8(%rip)        # 604bac <num_input_strings>
  401a04:	48 98                	cltq   
  401a06:	48 6b c0 50          	imul   $0x50,%rax,%rax
  401a0a:	48 bf 2a 2a 2a 74 72 	movabs $0x636e7572742a2a2a,%rdi
  401a11:	75 6e 63 
  401a14:	48 89 b8 c0 4b 60 00 	mov    %rdi,0x604bc0(%rax)
  401a1b:	48 bf 61 74 65 64 2a 	movabs $0x2a2a2a64657461,%rdi
  401a22:	2a 2a 00 
  401a25:	48 89 b8 c8 4b 60 00 	mov    %rdi,0x604bc8(%rax)
  401a2c:	e8 5d fe ff ff       	callq  40188e <explode_bomb>

0000000000401a31 <phase_defused>:
  401a31:	48 83 ec 08          	sub    $0x8,%rsp
  401a35:	bf 01 00 00 00       	mov    $0x1,%edi
  401a3a:	e8 43 fd ff ff       	callq  401782 <send_msg>
  401a3f:	83 3d 66 31 20 00 09 	cmpl   $0x9,0x203166(%rip)        # 604bac <num_input_strings>
  401a46:	74 05                	je     401a4d <phase_defused+0x1c>
  401a48:	48 83 c4 08          	add    $0x8,%rsp
  401a4c:	c3                   	retq   
  401a4d:	bf f8 29 40 00       	mov    $0x4029f8,%edi
  401a52:	e8 59 f1 ff ff       	callq  400bb0 <puts@plt>
  401a57:	bf 28 2a 40 00       	mov    $0x402a28,%edi
  401a5c:	e8 4f f1 ff ff       	callq  400bb0 <puts@plt>
  401a61:	eb e5                	jmp    401a48 <phase_defused+0x17>

0000000000401a63 <sigalrm_handler>:
  401a63:	48 83 ec 08          	sub    $0x8,%rsp
  401a67:	b9 00 00 00 00       	mov    $0x0,%ecx
  401a6c:	ba a0 2e 40 00       	mov    $0x402ea0,%edx
  401a71:	be 01 00 00 00       	mov    $0x1,%esi
  401a76:	48 8b 3d 23 31 20 00 	mov    0x203123(%rip),%rdi        # 604ba0 <stderr@@GLIBC_2.2.5>
  401a7d:	b8 00 00 00 00       	mov    $0x0,%eax
  401a82:	e8 69 f2 ff ff       	callq  400cf0 <__fprintf_chk@plt>
  401a87:	bf 01 00 00 00       	mov    $0x1,%edi
  401a8c:	e8 3f f2 ff ff       	callq  400cd0 <exit@plt>

0000000000401a91 <rio_readlineb>:
  401a91:	41 56                	push   %r14
  401a93:	41 55                	push   %r13
  401a95:	41 54                	push   %r12
  401a97:	55                   	push   %rbp
  401a98:	53                   	push   %rbx
  401a99:	48 89 fb             	mov    %rdi,%rbx
  401a9c:	49 89 d6             	mov    %rdx,%r14
  401a9f:	49 89 f5             	mov    %rsi,%r13
  401aa2:	41 bc 01 00 00 00    	mov    $0x1,%r12d
  401aa8:	48 8d 6f 10          	lea    0x10(%rdi),%rbp
  401aac:	48 83 fa 01          	cmp    $0x1,%rdx
  401ab0:	77 0c                	ja     401abe <rio_readlineb+0x2d>
  401ab2:	eb 5f                	jmp    401b13 <rio_readlineb+0x82>
  401ab4:	e8 d7 f0 ff ff       	callq  400b90 <__errno_location@plt>
  401ab9:	83 38 04             	cmpl   $0x4,(%rax)
  401abc:	75 66                	jne    401b24 <rio_readlineb+0x93>
  401abe:	8b 43 04             	mov    0x4(%rbx),%eax
  401ac1:	85 c0                	test   %eax,%eax
  401ac3:	7f 20                	jg     401ae5 <rio_readlineb+0x54>
  401ac5:	ba 00 20 00 00       	mov    $0x2000,%edx
  401aca:	48 89 ee             	mov    %rbp,%rsi
  401acd:	8b 3b                	mov    (%rbx),%edi
  401acf:	e8 2c f1 ff ff       	callq  400c00 <read@plt>
  401ad4:	89 43 04             	mov    %eax,0x4(%rbx)
  401ad7:	85 c0                	test   %eax,%eax
  401ad9:	78 d9                	js     401ab4 <rio_readlineb+0x23>
  401adb:	85 c0                	test   %eax,%eax
  401add:	74 4e                	je     401b2d <rio_readlineb+0x9c>
  401adf:	48 89 6b 08          	mov    %rbp,0x8(%rbx)
  401ae3:	eb d9                	jmp    401abe <rio_readlineb+0x2d>
  401ae5:	48 8b 53 08          	mov    0x8(%rbx),%rdx
  401ae9:	0f b6 0a             	movzbl (%rdx),%ecx
  401aec:	48 83 c2 01          	add    $0x1,%rdx
  401af0:	48 89 53 08          	mov    %rdx,0x8(%rbx)
  401af4:	83 e8 01             	sub    $0x1,%eax
  401af7:	89 43 04             	mov    %eax,0x4(%rbx)
  401afa:	49 83 c5 01          	add    $0x1,%r13
  401afe:	41 88 4d ff          	mov    %cl,-0x1(%r13)
  401b02:	80 f9 0a             	cmp    $0xa,%cl
  401b05:	74 0c                	je     401b13 <rio_readlineb+0x82>
  401b07:	41 83 c4 01          	add    $0x1,%r12d
  401b0b:	49 63 c4             	movslq %r12d,%rax
  401b0e:	4c 39 f0             	cmp    %r14,%rax
  401b11:	72 ab                	jb     401abe <rio_readlineb+0x2d>
  401b13:	41 c6 45 00 00       	movb   $0x0,0x0(%r13)
  401b18:	49 63 c4             	movslq %r12d,%rax
  401b1b:	5b                   	pop    %rbx
  401b1c:	5d                   	pop    %rbp
  401b1d:	41 5c                	pop    %r12
  401b1f:	41 5d                	pop    %r13
  401b21:	41 5e                	pop    %r14
  401b23:	c3                   	retq   
  401b24:	48 c7 c0 ff ff ff ff 	mov    $0xffffffffffffffff,%rax
  401b2b:	eb 05                	jmp    401b32 <rio_readlineb+0xa1>
  401b2d:	b8 00 00 00 00       	mov    $0x0,%eax
  401b32:	85 c0                	test   %eax,%eax
  401b34:	75 0d                	jne    401b43 <rio_readlineb+0xb2>
  401b36:	41 83 fc 01          	cmp    $0x1,%r12d
  401b3a:	75 d7                	jne    401b13 <rio_readlineb+0x82>
  401b3c:	b8 00 00 00 00       	mov    $0x0,%eax
  401b41:	eb d8                	jmp    401b1b <rio_readlineb+0x8a>
  401b43:	48 c7 c0 ff ff ff ff 	mov    $0xffffffffffffffff,%rax
  401b4a:	eb cf                	jmp    401b1b <rio_readlineb+0x8a>

0000000000401b4c <submitr>:
  401b4c:	41 57                	push   %r15
  401b4e:	41 56                	push   %r14
  401b50:	41 55                	push   %r13
  401b52:	41 54                	push   %r12
  401b54:	55                   	push   %rbp
  401b55:	53                   	push   %rbx
  401b56:	48 81 ec 68 a0 00 00 	sub    $0xa068,%rsp
  401b5d:	48 89 fd             	mov    %rdi,%rbp
  401b60:	41 89 f5             	mov    %esi,%r13d
  401b63:	48 89 54 24 08       	mov    %rdx,0x8(%rsp)
  401b68:	48 89 4c 24 10       	mov    %rcx,0x10(%rsp)
  401b6d:	4c 89 44 24 18       	mov    %r8,0x18(%rsp)
  401b72:	4c 89 cb             	mov    %r9,%rbx
  401b75:	4c 8b bc 24 a0 a0 00 	mov    0xa0a0(%rsp),%r15
  401b7c:	00 
  401b7d:	64 48 8b 04 25 28 00 	mov    %fs:0x28,%rax
  401b84:	00 00 
  401b86:	48 89 84 24 58 a0 00 	mov    %rax,0xa058(%rsp)
  401b8d:	00 
  401b8e:	31 c0                	xor    %eax,%eax
  401b90:	c7 44 24 2c 00 00 00 	movl   $0x0,0x2c(%rsp)
  401b97:	00 
  401b98:	ba 00 00 00 00       	mov    $0x0,%edx
  401b9d:	be 01 00 00 00       	mov    $0x1,%esi
  401ba2:	bf 02 00 00 00       	mov    $0x2,%edi
  401ba7:	e8 84 f1 ff ff       	callq  400d30 <socket@plt>
  401bac:	85 c0                	test   %eax,%eax
  401bae:	0f 88 19 01 00 00    	js     401ccd <submitr+0x181>
  401bb4:	41 89 c4             	mov    %eax,%r12d
  401bb7:	48 89 ef             	mov    %rbp,%rdi
  401bba:	e8 81 f0 ff ff       	callq  400c40 <gethostbyname@plt>
  401bbf:	48 85 c0             	test   %rax,%rax
  401bc2:	0f 84 55 01 00 00    	je     401d1d <submitr+0x1d1>
  401bc8:	48 c7 44 24 30 00 00 	movq   $0x0,0x30(%rsp)
  401bcf:	00 00 
  401bd1:	48 c7 44 24 38 00 00 	movq   $0x0,0x38(%rsp)
  401bd8:	00 00 
  401bda:	66 c7 44 24 30 02 00 	movw   $0x2,0x30(%rsp)
  401be1:	48 63 50 14          	movslq 0x14(%rax),%rdx
  401be5:	48 8b 40 18          	mov    0x18(%rax),%rax
  401be9:	48 8d 7c 24 34       	lea    0x34(%rsp),%rdi
  401bee:	b9 0c 00 00 00       	mov    $0xc,%ecx
  401bf3:	48 8b 30             	mov    (%rax),%rsi
  401bf6:	e8 55 f0 ff ff       	callq  400c50 <__memmove_chk@plt>
  401bfb:	66 41 c1 cd 08       	ror    $0x8,%r13w
  401c00:	66 44 89 6c 24 32    	mov    %r13w,0x32(%rsp)
  401c06:	ba 10 00 00 00       	mov    $0x10,%edx
  401c0b:	48 8d 74 24 30       	lea    0x30(%rsp),%rsi
  401c10:	44 89 e7             	mov    %r12d,%edi
  401c13:	e8 c8 f0 ff ff       	callq  400ce0 <connect@plt>
  401c18:	85 c0                	test   %eax,%eax
  401c1a:	0f 88 68 01 00 00    	js     401d88 <submitr+0x23c>
  401c20:	49 c7 c1 ff ff ff ff 	mov    $0xffffffffffffffff,%r9
  401c27:	b8 00 00 00 00       	mov    $0x0,%eax
  401c2c:	4c 89 c9             	mov    %r9,%rcx
  401c2f:	48 89 df             	mov    %rbx,%rdi
  401c32:	f2 ae                	repnz scas %es:(%rdi),%al
  401c34:	48 89 ce             	mov    %rcx,%rsi
  401c37:	48 f7 d6             	not    %rsi
  401c3a:	4c 89 c9             	mov    %r9,%rcx
  401c3d:	48 8b 7c 24 08       	mov    0x8(%rsp),%rdi
  401c42:	f2 ae                	repnz scas %es:(%rdi),%al
  401c44:	49 89 c8             	mov    %rcx,%r8
  401c47:	4c 89 c9             	mov    %r9,%rcx
  401c4a:	48 8b 7c 24 10       	mov    0x10(%rsp),%rdi
  401c4f:	f2 ae                	repnz scas %es:(%rdi),%al
  401c51:	48 89 ca             	mov    %rcx,%rdx
  401c54:	48 f7 d2             	not    %rdx
  401c57:	4c 89 c9             	mov    %r9,%rcx
  401c5a:	48 8b 7c 24 18       	mov    0x18(%rsp),%rdi
  401c5f:	f2 ae                	repnz scas %es:(%rdi),%al
  401c61:	4c 29 c2             	sub    %r8,%rdx
  401c64:	48 29 ca             	sub    %rcx,%rdx
  401c67:	48 8d 44 76 fd       	lea    -0x3(%rsi,%rsi,2),%rax
  401c6c:	48 8d 44 02 7b       	lea    0x7b(%rdx,%rax,1),%rax
  401c71:	48 3d 00 20 00 00    	cmp    $0x2000,%rax
  401c77:	0f 87 68 01 00 00    	ja     401de5 <submitr+0x299>
  401c7d:	48 8d 94 24 50 40 00 	lea    0x4050(%rsp),%rdx
  401c84:	00 
  401c85:	b9 00 04 00 00       	mov    $0x400,%ecx
  401c8a:	b8 00 00 00 00       	mov    $0x0,%eax
  401c8f:	48 89 d7             	mov    %rdx,%rdi
  401c92:	f3 48 ab             	rep stos %rax,%es:(%rdi)
  401c95:	48 c7 c1 ff ff ff ff 	mov    $0xffffffffffffffff,%rcx
  401c9c:	48 89 df             	mov    %rbx,%rdi
  401c9f:	f2 ae                	repnz scas %es:(%rdi),%al
  401ca1:	48 89 c8             	mov    %rcx,%rax
  401ca4:	48 f7 d0             	not    %rax
  401ca7:	48 83 e8 01          	sub    $0x1,%rax
  401cab:	85 c0                	test   %eax,%eax
  401cad:	0f 84 51 06 00 00    	je     402304 <submitr+0x7b8>
  401cb3:	8d 40 ff             	lea    -0x1(%rax),%eax
  401cb6:	4c 8d 74 03 01       	lea    0x1(%rbx,%rax,1),%r14
  401cbb:	48 89 d5             	mov    %rdx,%rbp
  401cbe:	49 bd d9 ff 00 00 00 	movabs $0x2000000000ffd9,%r13
  401cc5:	00 20 00 
  401cc8:	e9 a6 01 00 00       	jmpq   401e73 <submitr+0x327>
  401ccd:	48 b8 45 72 72 6f 72 	movabs $0x43203a726f727245,%rax
  401cd4:	3a 20 43 
  401cd7:	49 89 07             	mov    %rax,(%r15)
  401cda:	48 b8 6c 69 65 6e 74 	movabs $0x6e7520746e65696c,%rax
  401ce1:	20 75 6e 
  401ce4:	49 89 47 08          	mov    %rax,0x8(%r15)
  401ce8:	48 b8 61 62 6c 65 20 	movabs $0x206f7420656c6261,%rax
  401cef:	74 6f 20 
  401cf2:	49 89 47 10          	mov    %rax,0x10(%r15)
  401cf6:	48 b8 63 72 65 61 74 	movabs $0x7320657461657263,%rax
  401cfd:	65 20 73 
  401d00:	49 89 47 18          	mov    %rax,0x18(%r15)
  401d04:	41 c7 47 20 6f 63 6b 	movl   $0x656b636f,0x20(%r15)
  401d0b:	65 
  401d0c:	66 41 c7 47 24 74 00 	movw   $0x74,0x24(%r15)
  401d13:	b8 ff ff ff ff       	mov    $0xffffffff,%eax
  401d18:	e9 be 04 00 00       	jmpq   4021db <submitr+0x68f>
  401d1d:	48 b8 45 72 72 6f 72 	movabs $0x44203a726f727245,%rax
  401d24:	3a 20 44 
  401d27:	49 89 07             	mov    %rax,(%r15)
  401d2a:	48 b8 4e 53 20 69 73 	movabs $0x6e7520736920534e,%rax
  401d31:	20 75 6e 
  401d34:	49 89 47 08          	mov    %rax,0x8(%r15)
  401d38:	48 b8 61 62 6c 65 20 	movabs $0x206f7420656c6261,%rax
  401d3f:	74 6f 20 
  401d42:	49 89 47 10          	mov    %rax,0x10(%r15)
  401d46:	48 b8 72 65 73 6f 6c 	movabs $0x2065766c6f736572,%rax
  401d4d:	76 65 20 
  401d50:	49 89 47 18          	mov    %rax,0x18(%r15)
  401d54:	48 b8 73 65 72 76 65 	movabs $0x6120726576726573,%rax
  401d5b:	72 20 61 
  401d5e:	49 89 47 20          	mov    %rax,0x20(%r15)
  401d62:	41 c7 47 28 64 64 72 	movl   $0x65726464,0x28(%r15)
  401d69:	65 
  401d6a:	66 41 c7 47 2c 73 73 	movw   $0x7373,0x2c(%r15)
  401d71:	41 c6 47 2e 00       	movb   $0x0,0x2e(%r15)
  401d76:	44 89 e7             	mov    %r12d,%edi
  401d79:	e8 72 ee ff ff       	callq  400bf0 <close@plt>
  401d7e:	b8 ff ff ff ff       	mov    $0xffffffff,%eax
  401d83:	e9 53 04 00 00       	jmpq   4021db <submitr+0x68f>
  401d88:	48 b8 45 72 72 6f 72 	movabs $0x55203a726f727245,%rax
  401d8f:	3a 20 55 
  401d92:	49 89 07             	mov    %rax,(%r15)
  401d95:	48 b8 6e 61 62 6c 65 	movabs $0x6f7420656c62616e,%rax
  401d9c:	20 74 6f 
  401d9f:	49 89 47 08          	mov    %rax,0x8(%r15)
  401da3:	48 b8 20 63 6f 6e 6e 	movabs $0x7463656e6e6f6320,%rax
  401daa:	65 63 74 
  401dad:	49 89 47 10          	mov    %rax,0x10(%r15)
  401db1:	48 b8 20 74 6f 20 74 	movabs $0x20656874206f7420,%rax
  401db8:	68 65 20 
  401dbb:	49 89 47 18          	mov    %rax,0x18(%r15)
  401dbf:	41 c7 47 20 73 65 72 	movl   $0x76726573,0x20(%r15)
  401dc6:	76 
  401dc7:	66 41 c7 47 24 65 72 	movw   $0x7265,0x24(%r15)
  401dce:	41 c6 47 26 00       	movb   $0x0,0x26(%r15)
  401dd3:	44 89 e7             	mov    %r12d,%edi
  401dd6:	e8 15 ee ff ff       	callq  400bf0 <close@plt>
  401ddb:	b8 ff ff ff ff       	mov    $0xffffffff,%eax
  401de0:	e9 f6 03 00 00       	jmpq   4021db <submitr+0x68f>
  401de5:	48 b8 45 72 72 6f 72 	movabs $0x52203a726f727245,%rax
  401dec:	3a 20 52 
  401def:	49 89 07             	mov    %rax,(%r15)
  401df2:	48 b8 65 73 75 6c 74 	movabs $0x747320746c757365,%rax
  401df9:	20 73 74 
  401dfc:	49 89 47 08          	mov    %rax,0x8(%r15)
  401e00:	48 b8 72 69 6e 67 20 	movabs $0x6f6f7420676e6972,%rax
  401e07:	74 6f 6f 
  401e0a:	49 89 47 10          	mov    %rax,0x10(%r15)
  401e0e:	48 b8 20 6c 61 72 67 	movabs $0x202e656772616c20,%rax
  401e15:	65 2e 20 
  401e18:	49 89 47 18          	mov    %rax,0x18(%r15)
  401e1c:	48 b8 49 6e 63 72 65 	movabs $0x6573616572636e49,%rax
  401e23:	61 73 65 
  401e26:	49 89 47 20          	mov    %rax,0x20(%r15)
  401e2a:	48 b8 20 53 55 42 4d 	movabs $0x5254494d42555320,%rax
  401e31:	49 54 52 
  401e34:	49 89 47 28          	mov    %rax,0x28(%r15)
  401e38:	48 b8 5f 4d 41 58 42 	movabs $0x46554258414d5f,%rax
  401e3f:	55 46 00 
  401e42:	49 89 47 30          	mov    %rax,0x30(%r15)
  401e46:	44 89 e7             	mov    %r12d,%edi
  401e49:	e8 a2 ed ff ff       	callq  400bf0 <close@plt>
  401e4e:	b8 ff ff ff ff       	mov    $0xffffffff,%eax
  401e53:	e9 83 03 00 00       	jmpq   4021db <submitr+0x68f>
  401e58:	49 0f a3 c5          	bt     %rax,%r13
  401e5c:	73 21                	jae    401e7f <submitr+0x333>
  401e5e:	44 88 45 00          	mov    %r8b,0x0(%rbp)
  401e62:	48 8d 6d 01          	lea    0x1(%rbp),%rbp
  401e66:	48 83 c3 01          	add    $0x1,%rbx
  401e6a:	49 39 de             	cmp    %rbx,%r14
  401e6d:	0f 84 91 04 00 00    	je     402304 <submitr+0x7b8>
  401e73:	44 0f b6 03          	movzbl (%rbx),%r8d
  401e77:	41 8d 40 d6          	lea    -0x2a(%r8),%eax
  401e7b:	3c 35                	cmp    $0x35,%al
  401e7d:	76 d9                	jbe    401e58 <submitr+0x30c>
  401e7f:	44 89 c0             	mov    %r8d,%eax
  401e82:	83 e0 df             	and    $0xffffffdf,%eax
  401e85:	83 e8 41             	sub    $0x41,%eax
  401e88:	3c 19                	cmp    $0x19,%al
  401e8a:	76 d2                	jbe    401e5e <submitr+0x312>
  401e8c:	41 80 f8 20          	cmp    $0x20,%r8b
  401e90:	74 61                	je     401ef3 <submitr+0x3a7>
  401e92:	41 8d 40 e0          	lea    -0x20(%r8),%eax
  401e96:	3c 5f                	cmp    $0x5f,%al
  401e98:	76 0a                	jbe    401ea4 <submitr+0x358>
  401e9a:	41 80 f8 09          	cmp    $0x9,%r8b
  401e9e:	0f 85 d3 03 00 00    	jne    402277 <submitr+0x72b>
  401ea4:	45 0f b6 c0          	movzbl %r8b,%r8d
  401ea8:	b9 70 2f 40 00       	mov    $0x402f70,%ecx
  401ead:	ba 08 00 00 00       	mov    $0x8,%edx
  401eb2:	be 01 00 00 00       	mov    $0x1,%esi
  401eb7:	48 8d bc 24 50 80 00 	lea    0x8050(%rsp),%rdi
  401ebe:	00 
  401ebf:	b8 00 00 00 00       	mov    $0x0,%eax
  401ec4:	e8 57 ee ff ff       	callq  400d20 <__sprintf_chk@plt>
  401ec9:	0f b6 84 24 50 80 00 	movzbl 0x8050(%rsp),%eax
  401ed0:	00 
  401ed1:	88 45 00             	mov    %al,0x0(%rbp)
  401ed4:	0f b6 84 24 51 80 00 	movzbl 0x8051(%rsp),%eax
  401edb:	00 
  401edc:	88 45 01             	mov    %al,0x1(%rbp)
  401edf:	0f b6 84 24 52 80 00 	movzbl 0x8052(%rsp),%eax
  401ee6:	00 
  401ee7:	88 45 02             	mov    %al,0x2(%rbp)
  401eea:	48 8d 6d 03          	lea    0x3(%rbp),%rbp
  401eee:	e9 73 ff ff ff       	jmpq   401e66 <submitr+0x31a>
  401ef3:	c6 45 00 2b          	movb   $0x2b,0x0(%rbp)
  401ef7:	48 8d 6d 01          	lea    0x1(%rbp),%rbp
  401efb:	e9 66 ff ff ff       	jmpq   401e66 <submitr+0x31a>
  401f00:	48 01 c5             	add    %rax,%rbp
  401f03:	48 29 c3             	sub    %rax,%rbx
  401f06:	74 26                	je     401f2e <submitr+0x3e2>
  401f08:	48 89 da             	mov    %rbx,%rdx
  401f0b:	48 89 ee             	mov    %rbp,%rsi
  401f0e:	44 89 e7             	mov    %r12d,%edi
  401f11:	e8 aa ec ff ff       	callq  400bc0 <write@plt>
  401f16:	48 85 c0             	test   %rax,%rax
  401f19:	7f e5                	jg     401f00 <submitr+0x3b4>
  401f1b:	e8 70 ec ff ff       	callq  400b90 <__errno_location@plt>
  401f20:	83 38 04             	cmpl   $0x4,(%rax)
  401f23:	0f 85 c5 00 00 00    	jne    401fee <submitr+0x4a2>
  401f29:	4c 89 f0             	mov    %r14,%rax
  401f2c:	eb d2                	jmp    401f00 <submitr+0x3b4>
  401f2e:	4d 85 ed             	test   %r13,%r13
  401f31:	0f 88 b7 00 00 00    	js     401fee <submitr+0x4a2>
  401f37:	44 89 64 24 40       	mov    %r12d,0x40(%rsp)
  401f3c:	c7 44 24 44 00 00 00 	movl   $0x0,0x44(%rsp)
  401f43:	00 
  401f44:	48 8d 44 24 50       	lea    0x50(%rsp),%rax
  401f49:	48 89 44 24 48       	mov    %rax,0x48(%rsp)
  401f4e:	ba 00 20 00 00       	mov    $0x2000,%edx
  401f53:	48 8d b4 24 50 20 00 	lea    0x2050(%rsp),%rsi
  401f5a:	00 
  401f5b:	48 8d 7c 24 40       	lea    0x40(%rsp),%rdi
  401f60:	e8 2c fb ff ff       	callq  401a91 <rio_readlineb>
  401f65:	48 85 c0             	test   %rax,%rax
  401f68:	0f 8e df 00 00 00    	jle    40204d <submitr+0x501>
  401f6e:	4c 8d 84 24 50 80 00 	lea    0x8050(%rsp),%r8
  401f75:	00 
  401f76:	48 8d 4c 24 2c       	lea    0x2c(%rsp),%rcx
  401f7b:	48 8d 94 24 50 60 00 	lea    0x6050(%rsp),%rdx
  401f82:	00 
  401f83:	be 77 2f 40 00       	mov    $0x402f77,%esi
  401f88:	48 8d bc 24 50 20 00 	lea    0x2050(%rsp),%rdi
  401f8f:	00 
  401f90:	b8 00 00 00 00       	mov    $0x0,%eax
  401f95:	e8 f6 ec ff ff       	callq  400c90 <__isoc99_sscanf@plt>
  401f9a:	44 8b 44 24 2c       	mov    0x2c(%rsp),%r8d
  401f9f:	bb 0d 00 00 00       	mov    $0xd,%ebx
  401fa4:	bd 0a 00 00 00       	mov    $0xa,%ebp
  401fa9:	41 81 f8 c8 00 00 00 	cmp    $0xc8,%r8d
  401fb0:	0f 84 99 01 00 00    	je     40214f <submitr+0x603>
  401fb6:	4c 8d 8c 24 50 80 00 	lea    0x8050(%rsp),%r9
  401fbd:	00 
  401fbe:	b9 c8 2e 40 00       	mov    $0x402ec8,%ecx
  401fc3:	48 c7 c2 ff ff ff ff 	mov    $0xffffffffffffffff,%rdx
  401fca:	be 01 00 00 00       	mov    $0x1,%esi
  401fcf:	4c 89 ff             	mov    %r15,%rdi
  401fd2:	b8 00 00 00 00       	mov    $0x0,%eax
  401fd7:	e8 44 ed ff ff       	callq  400d20 <__sprintf_chk@plt>
  401fdc:	44 89 e7             	mov    %r12d,%edi
  401fdf:	e8 0c ec ff ff       	callq  400bf0 <close@plt>
  401fe4:	b8 ff ff ff ff       	mov    $0xffffffff,%eax
  401fe9:	e9 ed 01 00 00       	jmpq   4021db <submitr+0x68f>
  401fee:	48 b8 45 72 72 6f 72 	movabs $0x43203a726f727245,%rax
  401ff5:	3a 20 43 
  401ff8:	49 89 07             	mov    %rax,(%r15)
  401ffb:	48 b8 6c 69 65 6e 74 	movabs $0x6e7520746e65696c,%rax
  402002:	20 75 6e 
  402005:	49 89 47 08          	mov    %rax,0x8(%r15)
  402009:	48 b8 61 62 6c 65 20 	movabs $0x206f7420656c6261,%rax
  402010:	74 6f 20 
  402013:	49 89 47 10          	mov    %rax,0x10(%r15)
  402017:	48 b8 77 72 69 74 65 	movabs $0x6f74206574697277,%rax
  40201e:	20 74 6f 
  402021:	49 89 47 18          	mov    %rax,0x18(%r15)
  402025:	48 b8 20 74 68 65 20 	movabs $0x7265732065687420,%rax
  40202c:	73 65 72 
  40202f:	49 89 47 20          	mov    %rax,0x20(%r15)
  402033:	41 c7 47 28 76 65 72 	movl   $0x726576,0x28(%r15)
  40203a:	00 
  40203b:	44 89 e7             	mov    %r12d,%edi
  40203e:	e8 ad eb ff ff       	callq  400bf0 <close@plt>
  402043:	b8 ff ff ff ff       	mov    $0xffffffff,%eax
  402048:	e9 8e 01 00 00       	jmpq   4021db <submitr+0x68f>
  40204d:	48 b8 45 72 72 6f 72 	movabs $0x43203a726f727245,%rax
  402054:	3a 20 43 
  402057:	49 89 07             	mov    %rax,(%r15)
  40205a:	48 b8 6c 69 65 6e 74 	movabs $0x6e7520746e65696c,%rax
  402061:	20 75 6e 
  402064:	49 89 47 08          	mov    %rax,0x8(%r15)
  402068:	48 b8 61 62 6c 65 20 	movabs $0x206f7420656c6261,%rax
  40206f:	74 6f 20 
  402072:	49 89 47 10          	mov    %rax,0x10(%r15)
  402076:	48 b8 72 65 61 64 20 	movabs $0x7269662064616572,%rax
  40207d:	66 69 72 
  402080:	49 89 47 18          	mov    %rax,0x18(%r15)
  402084:	48 b8 73 74 20 68 65 	movabs $0x6564616568207473,%rax
  40208b:	61 64 65 
  40208e:	49 89 47 20          	mov    %rax,0x20(%r15)
  402092:	48 b8 72 20 66 72 6f 	movabs $0x73206d6f72662072,%rax
  402099:	6d 20 73 
  40209c:	49 89 47 28          	mov    %rax,0x28(%r15)
  4020a0:	41 c7 47 30 65 72 76 	movl   $0x65767265,0x30(%r15)
  4020a7:	65 
  4020a8:	66 41 c7 47 34 72 00 	movw   $0x72,0x34(%r15)
  4020af:	44 89 e7             	mov    %r12d,%edi
  4020b2:	e8 39 eb ff ff       	callq  400bf0 <close@plt>
  4020b7:	b8 ff ff ff ff       	mov    $0xffffffff,%eax
  4020bc:	e9 1a 01 00 00       	jmpq   4021db <submitr+0x68f>
  4020c1:	48 b8 45 72 72 6f 72 	movabs $0x43203a726f727245,%rax
  4020c8:	3a 20 43 
  4020cb:	49 89 07             	mov    %rax,(%r15)
  4020ce:	48 b8 6c 69 65 6e 74 	movabs $0x6e7520746e65696c,%rax
  4020d5:	20 75 6e 
  4020d8:	49 89 47 08          	mov    %rax,0x8(%r15)
  4020dc:	48 b8 61 62 6c 65 20 	movabs $0x206f7420656c6261,%rax
  4020e3:	74 6f 20 
  4020e6:	49 89 47 10          	mov    %rax,0x10(%r15)
  4020ea:	48 b8 72 65 61 64 20 	movabs $0x6165682064616572,%rax
  4020f1:	68 65 61 
  4020f4:	49 89 47 18          	mov    %rax,0x18(%r15)
  4020f8:	48 b8 64 65 72 73 20 	movabs $0x6f72662073726564,%rax
  4020ff:	66 72 6f 
  402102:	49 89 47 20          	mov    %rax,0x20(%r15)
  402106:	48 b8 6d 20 73 65 72 	movabs $0x726576726573206d,%rax
  40210d:	76 65 72 
  402110:	49 89 47 28          	mov    %rax,0x28(%r15)
  402114:	41 c6 47 30 00       	movb   $0x0,0x30(%r15)
  402119:	44 89 e7             	mov    %r12d,%edi
  40211c:	e8 cf ea ff ff       	callq  400bf0 <close@plt>
  402121:	b8 ff ff ff ff       	mov    $0xffffffff,%eax
  402126:	e9 b0 00 00 00       	jmpq   4021db <submitr+0x68f>
  40212b:	85 c0                	test   %eax,%eax
  40212d:	74 4c                	je     40217b <submitr+0x62f>
  40212f:	ba 00 20 00 00       	mov    $0x2000,%edx
  402134:	48 8d b4 24 50 20 00 	lea    0x2050(%rsp),%rsi
  40213b:	00 
  40213c:	48 8d 7c 24 40       	lea    0x40(%rsp),%rdi
  402141:	e8 4b f9 ff ff       	callq  401a91 <rio_readlineb>
  402146:	48 85 c0             	test   %rax,%rax
  402149:	0f 8e 72 ff ff ff    	jle    4020c1 <submitr+0x575>
  40214f:	0f b6 84 24 50 20 00 	movzbl 0x2050(%rsp),%eax
  402156:	00 
  402157:	89 d9                	mov    %ebx,%ecx
  402159:	29 c1                	sub    %eax,%ecx
  40215b:	89 c8                	mov    %ecx,%eax
  40215d:	75 cc                	jne    40212b <submitr+0x5df>
  40215f:	0f b6 84 24 51 20 00 	movzbl 0x2051(%rsp),%eax
  402166:	00 
  402167:	89 ea                	mov    %ebp,%edx
  402169:	29 c2                	sub    %eax,%edx
  40216b:	89 d0                	mov    %edx,%eax
  40216d:	75 bc                	jne    40212b <submitr+0x5df>
  40216f:	0f b6 84 24 52 20 00 	movzbl 0x2052(%rsp),%eax
  402176:	00 
  402177:	f7 d8                	neg    %eax
  402179:	eb b0                	jmp    40212b <submitr+0x5df>
  40217b:	ba 00 20 00 00       	mov    $0x2000,%edx
  402180:	48 8d b4 24 50 20 00 	lea    0x2050(%rsp),%rsi
  402187:	00 
  402188:	48 8d 7c 24 40       	lea    0x40(%rsp),%rdi
  40218d:	e8 ff f8 ff ff       	callq  401a91 <rio_readlineb>
  402192:	48 85 c0             	test   %rax,%rax
  402195:	7e 6d                	jle    402204 <submitr+0x6b8>
  402197:	48 8d b4 24 50 20 00 	lea    0x2050(%rsp),%rsi
  40219e:	00 
  40219f:	4c 89 ff             	mov    %r15,%rdi
  4021a2:	e8 f9 e9 ff ff       	callq  400ba0 <strcpy@plt>
  4021a7:	44 89 e7             	mov    %r12d,%edi
  4021aa:	e8 41 ea ff ff       	callq  400bf0 <close@plt>
  4021af:	41 0f b6 17          	movzbl (%r15),%edx
  4021b3:	b8 4f 00 00 00       	mov    $0x4f,%eax
  4021b8:	29 d0                	sub    %edx,%eax
  4021ba:	75 15                	jne    4021d1 <submitr+0x685>
  4021bc:	41 0f b6 57 01       	movzbl 0x1(%r15),%edx
  4021c1:	b8 4b 00 00 00       	mov    $0x4b,%eax
  4021c6:	29 d0                	sub    %edx,%eax
  4021c8:	75 07                	jne    4021d1 <submitr+0x685>
  4021ca:	41 0f b6 47 02       	movzbl 0x2(%r15),%eax
  4021cf:	f7 d8                	neg    %eax
  4021d1:	85 c0                	test   %eax,%eax
  4021d3:	0f 95 c0             	setne  %al
  4021d6:	0f b6 c0             	movzbl %al,%eax
  4021d9:	f7 d8                	neg    %eax
  4021db:	48 8b 8c 24 58 a0 00 	mov    0xa058(%rsp),%rcx
  4021e2:	00 
  4021e3:	64 48 33 0c 25 28 00 	xor    %fs:0x28,%rcx
  4021ea:	00 00 
  4021ec:	0f 85 8b 01 00 00    	jne    40237d <submitr+0x831>
  4021f2:	48 81 c4 68 a0 00 00 	add    $0xa068,%rsp
  4021f9:	5b                   	pop    %rbx
  4021fa:	5d                   	pop    %rbp
  4021fb:	41 5c                	pop    %r12
  4021fd:	41 5d                	pop    %r13
  4021ff:	41 5e                	pop    %r14
  402201:	41 5f                	pop    %r15
  402203:	c3                   	retq   
  402204:	48 b8 45 72 72 6f 72 	movabs $0x43203a726f727245,%rax
  40220b:	3a 20 43 
  40220e:	49 89 07             	mov    %rax,(%r15)
  402211:	48 b8 6c 69 65 6e 74 	movabs $0x6e7520746e65696c,%rax
  402218:	20 75 6e 
  40221b:	49 89 47 08          	mov    %rax,0x8(%r15)
  40221f:	48 b8 61 62 6c 65 20 	movabs $0x206f7420656c6261,%rax
  402226:	74 6f 20 
  402229:	49 89 47 10          	mov    %rax,0x10(%r15)
  40222d:	48 b8 72 65 61 64 20 	movabs $0x6174732064616572,%rax
  402234:	73 74 61 
  402237:	49 89 47 18          	mov    %rax,0x18(%r15)
  40223b:	48 b8 74 75 73 20 6d 	movabs $0x7373656d20737574,%rax
  402242:	65 73 73 
  402245:	49 89 47 20          	mov    %rax,0x20(%r15)
  402249:	48 b8 61 67 65 20 66 	movabs $0x6d6f726620656761,%rax
  402250:	72 6f 6d 
  402253:	49 89 47 28          	mov    %rax,0x28(%r15)
  402257:	48 b8 20 73 65 72 76 	movabs $0x72657672657320,%rax
  40225e:	65 72 00 
  402261:	49 89 47 30          	mov    %rax,0x30(%r15)
  402265:	44 89 e7             	mov    %r12d,%edi
  402268:	e8 83 e9 ff ff       	callq  400bf0 <close@plt>
  40226d:	b8 ff ff ff ff       	mov    $0xffffffff,%eax
  402272:	e9 64 ff ff ff       	jmpq   4021db <submitr+0x68f>
  402277:	48 b8 45 72 72 6f 72 	movabs $0x52203a726f727245,%rax
  40227e:	3a 20 52 
  402281:	49 89 07             	mov    %rax,(%r15)
  402284:	48 b8 65 73 75 6c 74 	movabs $0x747320746c757365,%rax
  40228b:	20 73 74 
  40228e:	49 89 47 08          	mov    %rax,0x8(%r15)
  402292:	48 b8 72 69 6e 67 20 	movabs $0x6e6f6320676e6972,%rax
  402299:	63 6f 6e 
  40229c:	49 89 47 10          	mov    %rax,0x10(%r15)
  4022a0:	48 b8 74 61 69 6e 73 	movabs $0x6e6120736e696174,%rax
  4022a7:	20 61 6e 
  4022aa:	49 89 47 18          	mov    %rax,0x18(%r15)
  4022ae:	48 b8 20 69 6c 6c 65 	movabs $0x6c6167656c6c6920,%rax
  4022b5:	67 61 6c 
  4022b8:	49 89 47 20          	mov    %rax,0x20(%r15)
  4022bc:	48 b8 20 6f 72 20 75 	movabs $0x72706e7520726f20,%rax
  4022c3:	6e 70 72 
  4022c6:	49 89 47 28          	mov    %rax,0x28(%r15)
  4022ca:	48 b8 69 6e 74 61 62 	movabs $0x20656c6261746e69,%rax
  4022d1:	6c 65 20 
  4022d4:	49 89 47 30          	mov    %rax,0x30(%r15)
  4022d8:	48 b8 63 68 61 72 61 	movabs $0x6574636172616863,%rax
  4022df:	63 74 65 
  4022e2:	49 89 47 38          	mov    %rax,0x38(%r15)
  4022e6:	66 41 c7 47 40 72 2e 	movw   $0x2e72,0x40(%r15)
  4022ed:	41 c6 47 42 00       	movb   $0x0,0x42(%r15)
  4022f2:	44 89 e7             	mov    %r12d,%edi
  4022f5:	e8 f6 e8 ff ff       	callq  400bf0 <close@plt>
  4022fa:	b8 ff ff ff ff       	mov    $0xffffffff,%eax
  4022ff:	e9 d7 fe ff ff       	jmpq   4021db <submitr+0x68f>
  402304:	48 8d 9c 24 50 20 00 	lea    0x2050(%rsp),%rbx
  40230b:	00 
  40230c:	48 8d 84 24 50 40 00 	lea    0x4050(%rsp),%rax
  402313:	00 
  402314:	50                   	push   %rax
  402315:	ff 74 24 20          	pushq  0x20(%rsp)
  402319:	4c 8b 4c 24 20       	mov    0x20(%rsp),%r9
  40231e:	4c 8b 44 24 18       	mov    0x18(%rsp),%r8
  402323:	b9 f8 2e 40 00       	mov    $0x402ef8,%ecx
  402328:	ba 00 20 00 00       	mov    $0x2000,%edx
  40232d:	be 01 00 00 00       	mov    $0x1,%esi
  402332:	48 89 df             	mov    %rbx,%rdi
  402335:	b8 00 00 00 00       	mov    $0x0,%eax
  40233a:	e8 e1 e9 ff ff       	callq  400d20 <__sprintf_chk@plt>
  40233f:	b8 00 00 00 00       	mov    $0x0,%eax
  402344:	48 c7 c1 ff ff ff ff 	mov    $0xffffffffffffffff,%rcx
  40234b:	48 89 df             	mov    %rbx,%rdi
  40234e:	f2 ae                	repnz scas %es:(%rdi),%al
  402350:	48 89 c8             	mov    %rcx,%rax
  402353:	48 f7 d0             	not    %rax
  402356:	4c 8d 68 ff          	lea    -0x1(%rax),%r13
  40235a:	48 83 c4 10          	add    $0x10,%rsp
  40235e:	4c 89 eb             	mov    %r13,%rbx
  402361:	48 8d ac 24 50 20 00 	lea    0x2050(%rsp),%rbp
  402368:	00 
  402369:	41 be 00 00 00 00    	mov    $0x0,%r14d
  40236f:	4d 85 ed             	test   %r13,%r13
  402372:	0f 85 90 fb ff ff    	jne    401f08 <submitr+0x3bc>
  402378:	e9 ba fb ff ff       	jmpq   401f37 <submitr+0x3eb>
  40237d:	e8 4e e8 ff ff       	callq  400bd0 <__stack_chk_fail@plt>

0000000000402382 <init_timeout>:
  402382:	85 ff                	test   %edi,%edi
  402384:	74 22                	je     4023a8 <init_timeout+0x26>
  402386:	53                   	push   %rbx
  402387:	89 fb                	mov    %edi,%ebx
  402389:	be 63 1a 40 00       	mov    $0x401a63,%esi
  40238e:	bf 0e 00 00 00       	mov    $0xe,%edi
  402393:	e8 98 e8 ff ff       	callq  400c30 <signal@plt>
  402398:	85 db                	test   %ebx,%ebx
  40239a:	bf 00 00 00 00       	mov    $0x0,%edi
  40239f:	0f 49 fb             	cmovns %ebx,%edi
  4023a2:	e8 39 e8 ff ff       	callq  400be0 <alarm@plt>
  4023a7:	5b                   	pop    %rbx
  4023a8:	f3 c3                	repz retq 

00000000004023aa <init_driver>:
  4023aa:	55                   	push   %rbp
  4023ab:	53                   	push   %rbx
  4023ac:	48 83 ec 28          	sub    $0x28,%rsp
  4023b0:	48 89 fd             	mov    %rdi,%rbp
  4023b3:	64 48 8b 04 25 28 00 	mov    %fs:0x28,%rax
  4023ba:	00 00 
  4023bc:	48 89 44 24 18       	mov    %rax,0x18(%rsp)
  4023c1:	31 c0                	xor    %eax,%eax
  4023c3:	be 01 00 00 00       	mov    $0x1,%esi
  4023c8:	bf 0d 00 00 00       	mov    $0xd,%edi
  4023cd:	e8 5e e8 ff ff       	callq  400c30 <signal@plt>
  4023d2:	be 01 00 00 00       	mov    $0x1,%esi
  4023d7:	bf 1d 00 00 00       	mov    $0x1d,%edi
  4023dc:	e8 4f e8 ff ff       	callq  400c30 <signal@plt>
  4023e1:	be 01 00 00 00       	mov    $0x1,%esi
  4023e6:	bf 1d 00 00 00       	mov    $0x1d,%edi
  4023eb:	e8 40 e8 ff ff       	callq  400c30 <signal@plt>
  4023f0:	ba 00 00 00 00       	mov    $0x0,%edx
  4023f5:	be 01 00 00 00       	mov    $0x1,%esi
  4023fa:	bf 02 00 00 00       	mov    $0x2,%edi
  4023ff:	e8 2c e9 ff ff       	callq  400d30 <socket@plt>
  402404:	85 c0                	test   %eax,%eax
  402406:	0f 88 95 00 00 00    	js     4024a1 <init_driver+0xf7>
  40240c:	89 c3                	mov    %eax,%ebx
  40240e:	bf 88 2f 40 00       	mov    $0x402f88,%edi
  402413:	e8 28 e8 ff ff       	callq  400c40 <gethostbyname@plt>
  402418:	48 85 c0             	test   %rax,%rax
  40241b:	0f 84 cc 00 00 00    	je     4024ed <init_driver+0x143>
  402421:	48 c7 04 24 00 00 00 	movq   $0x0,(%rsp)
  402428:	00 
  402429:	48 c7 44 24 08 00 00 	movq   $0x0,0x8(%rsp)
  402430:	00 00 
  402432:	66 c7 04 24 02 00    	movw   $0x2,(%rsp)
  402438:	48 63 50 14          	movslq 0x14(%rax),%rdx
  40243c:	48 8b 40 18          	mov    0x18(%rax),%rax
  402440:	48 8d 7c 24 04       	lea    0x4(%rsp),%rdi
  402445:	b9 0c 00 00 00       	mov    $0xc,%ecx
  40244a:	48 8b 30             	mov    (%rax),%rsi
  40244d:	e8 fe e7 ff ff       	callq  400c50 <__memmove_chk@plt>
  402452:	66 c7 44 24 02 3f 49 	movw   $0x493f,0x2(%rsp)
  402459:	ba 10 00 00 00       	mov    $0x10,%edx
  40245e:	48 89 e6             	mov    %rsp,%rsi
  402461:	89 df                	mov    %ebx,%edi
  402463:	e8 78 e8 ff ff       	callq  400ce0 <connect@plt>
  402468:	85 c0                	test   %eax,%eax
  40246a:	0f 88 e5 00 00 00    	js     402555 <init_driver+0x1ab>
  402470:	89 df                	mov    %ebx,%edi
  402472:	e8 79 e7 ff ff       	callq  400bf0 <close@plt>
  402477:	66 c7 45 00 4f 4b    	movw   $0x4b4f,0x0(%rbp)
  40247d:	c6 45 02 00          	movb   $0x0,0x2(%rbp)
  402481:	b8 00 00 00 00       	mov    $0x0,%eax
  402486:	48 8b 4c 24 18       	mov    0x18(%rsp),%rcx
  40248b:	64 48 33 0c 25 28 00 	xor    %fs:0x28,%rcx
  402492:	00 00 
  402494:	0f 85 f0 00 00 00    	jne    40258a <init_driver+0x1e0>
  40249a:	48 83 c4 28          	add    $0x28,%rsp
  40249e:	5b                   	pop    %rbx
  40249f:	5d                   	pop    %rbp
  4024a0:	c3                   	retq   
  4024a1:	48 b8 45 72 72 6f 72 	movabs $0x43203a726f727245,%rax
  4024a8:	3a 20 43 
  4024ab:	48 89 45 00          	mov    %rax,0x0(%rbp)
  4024af:	48 b8 6c 69 65 6e 74 	movabs $0x6e7520746e65696c,%rax
  4024b6:	20 75 6e 
  4024b9:	48 89 45 08          	mov    %rax,0x8(%rbp)
  4024bd:	48 b8 61 62 6c 65 20 	movabs $0x206f7420656c6261,%rax
  4024c4:	74 6f 20 
  4024c7:	48 89 45 10          	mov    %rax,0x10(%rbp)
  4024cb:	48 b8 63 72 65 61 74 	movabs $0x7320657461657263,%rax
  4024d2:	65 20 73 
  4024d5:	48 89 45 18          	mov    %rax,0x18(%rbp)
  4024d9:	c7 45 20 6f 63 6b 65 	movl   $0x656b636f,0x20(%rbp)
  4024e0:	66 c7 45 24 74 00    	movw   $0x74,0x24(%rbp)
  4024e6:	b8 ff ff ff ff       	mov    $0xffffffff,%eax
  4024eb:	eb 99                	jmp    402486 <init_driver+0xdc>
  4024ed:	48 b8 45 72 72 6f 72 	movabs $0x44203a726f727245,%rax
  4024f4:	3a 20 44 
  4024f7:	48 89 45 00          	mov    %rax,0x0(%rbp)
  4024fb:	48 b8 4e 53 20 69 73 	movabs $0x6e7520736920534e,%rax
  402502:	20 75 6e 
  402505:	48 89 45 08          	mov    %rax,0x8(%rbp)
  402509:	48 b8 61 62 6c 65 20 	movabs $0x206f7420656c6261,%rax
  402510:	74 6f 20 
  402513:	48 89 45 10          	mov    %rax,0x10(%rbp)
  402517:	48 b8 72 65 73 6f 6c 	movabs $0x2065766c6f736572,%rax
  40251e:	76 65 20 
  402521:	48 89 45 18          	mov    %rax,0x18(%rbp)
  402525:	48 b8 73 65 72 76 65 	movabs $0x6120726576726573,%rax
  40252c:	72 20 61 
  40252f:	48 89 45 20          	mov    %rax,0x20(%rbp)
  402533:	c7 45 28 64 64 72 65 	movl   $0x65726464,0x28(%rbp)
  40253a:	66 c7 45 2c 73 73    	movw   $0x7373,0x2c(%rbp)
  402540:	c6 45 2e 00          	movb   $0x0,0x2e(%rbp)
  402544:	89 df                	mov    %ebx,%edi
  402546:	e8 a5 e6 ff ff       	callq  400bf0 <close@plt>
  40254b:	b8 ff ff ff ff       	mov    $0xffffffff,%eax
  402550:	e9 31 ff ff ff       	jmpq   402486 <init_driver+0xdc>
  402555:	41 b8 88 2f 40 00    	mov    $0x402f88,%r8d
  40255b:	b9 48 2f 40 00       	mov    $0x402f48,%ecx
  402560:	48 c7 c2 ff ff ff ff 	mov    $0xffffffffffffffff,%rdx
  402567:	be 01 00 00 00       	mov    $0x1,%esi
  40256c:	48 89 ef             	mov    %rbp,%rdi
  40256f:	b8 00 00 00 00       	mov    $0x0,%eax
  402574:	e8 a7 e7 ff ff       	callq  400d20 <__sprintf_chk@plt>
  402579:	89 df                	mov    %ebx,%edi
  40257b:	e8 70 e6 ff ff       	callq  400bf0 <close@plt>
  402580:	b8 ff ff ff ff       	mov    $0xffffffff,%eax
  402585:	e9 fc fe ff ff       	jmpq   402486 <init_driver+0xdc>
  40258a:	e8 41 e6 ff ff       	callq  400bd0 <__stack_chk_fail@plt>

000000000040258f <driver_post>:
  40258f:	53                   	push   %rbx
  402590:	48 89 cb             	mov    %rcx,%rbx
  402593:	85 d2                	test   %edx,%edx
  402595:	75 17                	jne    4025ae <driver_post+0x1f>
  402597:	48 85 ff             	test   %rdi,%rdi
  40259a:	74 05                	je     4025a1 <driver_post+0x12>
  40259c:	80 3f 00             	cmpb   $0x0,(%rdi)
  40259f:	75 34                	jne    4025d5 <driver_post+0x46>
  4025a1:	66 c7 03 4f 4b       	movw   $0x4b4f,(%rbx)
  4025a6:	c6 43 02 00          	movb   $0x0,0x2(%rbx)
  4025aa:	89 d0                	mov    %edx,%eax
  4025ac:	5b                   	pop    %rbx
  4025ad:	c3                   	retq   
  4025ae:	48 89 f2             	mov    %rsi,%rdx
  4025b1:	be 9d 2f 40 00       	mov    $0x402f9d,%esi
  4025b6:	bf 01 00 00 00       	mov    $0x1,%edi
  4025bb:	b8 00 00 00 00       	mov    $0x0,%eax
  4025c0:	e8 db e6 ff ff       	callq  400ca0 <__printf_chk@plt>
  4025c5:	66 c7 03 4f 4b       	movw   $0x4b4f,(%rbx)
  4025ca:	c6 43 02 00          	movb   $0x0,0x2(%rbx)
  4025ce:	b8 00 00 00 00       	mov    $0x0,%eax
  4025d3:	eb d7                	jmp    4025ac <driver_post+0x1d>
  4025d5:	48 83 ec 08          	sub    $0x8,%rsp
  4025d9:	51                   	push   %rcx
  4025da:	49 89 f1             	mov    %rsi,%r9
  4025dd:	41 b8 b4 2f 40 00    	mov    $0x402fb4,%r8d
  4025e3:	48 89 f9             	mov    %rdi,%rcx
  4025e6:	ba bb 2f 40 00       	mov    $0x402fbb,%edx
  4025eb:	be 49 3f 00 00       	mov    $0x3f49,%esi
  4025f0:	bf 88 2f 40 00       	mov    $0x402f88,%edi
  4025f5:	e8 52 f5 ff ff       	callq  401b4c <submitr>
  4025fa:	48 83 c4 10          	add    $0x10,%rsp
  4025fe:	eb ac                	jmp    4025ac <driver_post+0x1d>

0000000000402600 <__libc_csu_init>:
  402600:	41 57                	push   %r15
  402602:	41 56                	push   %r14
  402604:	41 89 ff             	mov    %edi,%r15d
  402607:	41 55                	push   %r13
  402609:	41 54                	push   %r12
  40260b:	4c 8d 25 fe 17 20 00 	lea    0x2017fe(%rip),%r12        # 603e10 <__frame_dummy_init_array_entry>
  402612:	55                   	push   %rbp
  402613:	48 8d 2d fe 17 20 00 	lea    0x2017fe(%rip),%rbp        # 603e18 <__do_global_dtors_aux_fini_array_entry>
  40261a:	53                   	push   %rbx
  40261b:	49 89 f6             	mov    %rsi,%r14
  40261e:	49 89 d5             	mov    %rdx,%r13
  402621:	4c 29 e5             	sub    %r12,%rbp
  402624:	48 83 ec 08          	sub    $0x8,%rsp
  402628:	48 c1 fd 03          	sar    $0x3,%rbp
  40262c:	e8 07 e5 ff ff       	callq  400b38 <_init>
  402631:	48 85 ed             	test   %rbp,%rbp
  402634:	74 20                	je     402656 <__libc_csu_init+0x56>
  402636:	31 db                	xor    %ebx,%ebx
  402638:	0f 1f 84 00 00 00 00 	nopl   0x0(%rax,%rax,1)
  40263f:	00 
  402640:	4c 89 ea             	mov    %r13,%rdx
  402643:	4c 89 f6             	mov    %r14,%rsi
  402646:	44 89 ff             	mov    %r15d,%edi
  402649:	41 ff 14 dc          	callq  *(%r12,%rbx,8)
  40264d:	48 83 c3 01          	add    $0x1,%rbx
  402651:	48 39 eb             	cmp    %rbp,%rbx
  402654:	75 ea                	jne    402640 <__libc_csu_init+0x40>
  402656:	48 83 c4 08          	add    $0x8,%rsp
  40265a:	5b                   	pop    %rbx
  40265b:	5d                   	pop    %rbp
  40265c:	41 5c                	pop    %r12
  40265e:	41 5d                	pop    %r13
  402660:	41 5e                	pop    %r14
  402662:	41 5f                	pop    %r15
  402664:	c3                   	retq   
  402665:	90                   	nop
  402666:	66 2e 0f 1f 84 00 00 	nopw   %cs:0x0(%rax,%rax,1)
  40266d:	00 00 00 

0000000000402670 <__libc_csu_fini>:
  402670:	f3 c3                	repz retq 

Disassembly of section .fini:

0000000000402674 <_fini>:
  402674:	48 83 ec 08          	sub    $0x8,%rsp
  402678:	48 83 c4 08          	add    $0x8,%rsp
  40267c:	c3                   	retq   
